Certificate:
    Data:
        Version: 1 (0x0)
        Serial Number: 1 (0x1)
    Signature Algorithm: sha1WithRSAEncryption
        Issuer: C=us, ST=New York, L=New York, O=Example CA from Apress Media LLC, OU=Foundations of Python Network Programming 3rd Ed, CN=ca/emailAddress=ca@example.com
        Validity
            Not Before: Mar  8 16:58:10 2014 GMT
            Not After : Feb 12 16:58:10 2114 GMT
        Subject: C=us, ST=New York, O=Example from Apress Media LLC, OU=Foundations of Python Network Programming 3rd Ed, CN=ftp.example.com/emailAddress=root@example.com
        Subject Public Key Info:
            Public Key Algorithm: rsaEncryption
                Public-Key: (3072 bit)
                Modulus:
                    00:ee:6e:06:86:66:42:a2:d2:1a:84:da:f9:77:dc:
                    b6:49:7c:d9:ec:85:e2:bf:15:03:ff:db:85:fd:ed:
                    5c:57:d2:48:7e:e1:44:3c:ab:94:23:be:5a:2c:5b:
                    be:9e:2b:30:a8:6a:c8:d5:7b:81:4c:c0:72:d1:33:
                    61:74:12:4d:e0:6d:b2:bd:44:f4:9b:02:f5:23:c3:
                    96:22:c2:40:aa:b0:68:42:43:11:b0:c7:f1:7e:01:
                    d0:16:ab:0e:06:74:f3:ec:6a:9d:bf:a7:ea:37:32:
                    7f:cb:7f:cf:ca:56:21:31:60:52:b9:1e:98:7a:f0:
                    73:be:42:94:be:54:6b:d7:58:1e:7a:a0:50:cd:47:
                    6e:d7:97:fe:36:7a:62:23:fa:6b:f4:6f:63:f7:69:
                    e5:4d:f2:56:9b:c2:29:30:2e:2d:42:f7:34:59:e7:
                    02:ee:be:e9:fd:77:37:b1:f3:43:af:61:a6:ac:93:
                    9e:7a:73:f5:7b:65:a3:41:fc:b9:bc:c0:a3:71:ca:
                    1c:69:0e:54:3a:48:df:a0:33:10:76:22:ec:7f:53:
                    cb:9e:40:bc:91:1a:06:4e:48:99:9e:82:fe:49:bd:
                    bf:6a:d3:d3:03:bc:2f:fc:af:db:ab:ac:99:ab:0e:
                    f5:47:7a:ca:ae:d0:0e:90:db:3e:b7:79:42:de:85:
                    62:ec:5f:c6:12:0b:da:84:1d:40:83:b7:41:68:1a:
                    e0:e6:f8:fa:1f:91:18:a3:eb:77:59:f3:4b:67:d9:
                    39:48:f6:19:75:b0:4e:3a:18:37:1a:83:bb:45:8b:
                    bc:ed:d2:0c:c3:cb:66:a4:02:21:ae:3b:99:0e:73:
                    22:2b:84:87:33:1c:b1:6e:99:9b:3f:8b:ec:33:7c:
                    8d:b3:66:86:6b:5a:02:40:7f:ce:64:4e:e2:c3:e4:
                    a5:01:b5:1b:d8:f8:97:81:74:cd:0d:e1:86:de:94:
                    81:e7:0a:62:16:21:71:d6:7b:b3:3b:1f:fb:1c:a2:
                    8b:ab:49:0f:eb:24:8d:82:cf:9f
                Exponent: 65537 (0x10001)
    Signature Algorithm: sha1WithRSAEncryption
         8c:f8:04:f6:22:ec:fd:7e:a9:03:48:05:33:b6:64:ca:c8:d0:
         9d:11:fa:84:c1:1e:fd:b8:40:8e:2a:1c:1f:53:0f:0b:99:1a:
         e2:bc:42:bd:f4:46:15:9e:7b:1c:4f:c0:11:f3:8b:55:25:56:
         c1:6a:6d:84:f0:23:7c:ff:3e:da:16:8b:40:68:63:da:d9:a1:
         21:d8:ec:02:d4:87:d0:41:e4:91:e9:aa:18:b5:1e:1d:d2:01:
         30:ac:f1:8f:72:f5:6d:61:fa:94:61:2f:39:8e:00:3a:8b:1a:
         45:a4:63:36:54:b9:6d:a0:a7:da:c4:b5:94:98:e7:72:c0:47:
         bc:0d:0c:f2:a5:cc:4a:5c:f7:6a:f1:f6:c1:63:bb:37:60:c3:
         3c:fb:53:ab:b9:9a:c1:13:b4:80:af:fc:b8:de:21:82:46:7f:
         e1:49:7a:4a:fc:af:5d:53:1f:72:66:9a:0d:91:cf:2e:8b:b5:
         9f:e4:da:f6:84:5a:22:70:e6:75:16:d5:9f:be:b9:15:e9:d0:
         56:1c:8e:d0:7b:4c:8e:b5:1a:07:80:31:9e:b7:01:60:6c:6d:
         4c:10:95:11:c6:d1:d9:b7:1b:8c:53:a5:f6:8e:cb:9b:29:ef:
         0a:b0:fe:e1:32:86:8f:1d:ed:e6:66:ec:03:ef:f0:94:6f:f3:
         fb:3b:7d:e1:ab:1b:9b:10:43:9c:62:26:80:cd:99:cb:d8:d6:
         a3:e9:b7:83:0c:49:16:3e:30:f2:6b:cf:7e:68:4d:b8:e8:a1:
         94:c9:cf:5c:a4:96:71:38:3f:cc:e0:30:55:b1:ef:18:f0:f8:
         1f:8a:e5:e5:e8:ab:e6:fd:31:31:59:41:13:01:64:d7:a3:b8:
         fa:1c:a9:30:95:c6:12:89:b1:19:c3:9a:f5:eb:9c:66:14:4b:
         d3:ac:43:ac:d8:4e:8e:7f:9f:a6:32:28:58:2f:df:44:98:e2:
         0a:44:fb:0f:dc:11:1c:b2:52:6f:04:26:68:d2:96:2f:33:10:
         81:89:1f:ce:0b:99
-----BEGIN CERTIFICATE-----
MIIE+zCCA2MCAQEwDQYJKoZIhvcNAQEFBQAwgcUxCzAJBgNVBAYTAnVzMREwDwYD
VQQIEwhOZXcgWW9yazERMA8GA1UEBxMITmV3IFlvcmsxKTAnBgNVBAoTIEV4YW1w
bGUgQ0EgZnJvbSBBcHJlc3MgTWVkaWEgTExDMTkwNwYDVQQLEzBGb3VuZGF0aW9u
cyBvZiBQeXRob24gTmV0d29yayBQcm9ncmFtbWluZyAzcmQgRWQxCzAJBgNVBAMT
AmNhMR0wGwYJKoZIhvcNAQkBFg5jYUBleGFtcGxlLmNvbTAgFw0xNDAzMDgxNjU4
MTBaGA8yMTE0MDIxMjE2NTgxMFowgb4xCzAJBgNVBAYTAnVzMREwDwYDVQQIEwhO
ZXcgWW9yazEmMCQGA1UEChMdRXhhbXBsZSBmcm9tIEFwcmVzcyBNZWRpYSBMTEMx
OTA3BgNVBAsTMEZvdW5kYXRpb25zIG9mIFB5dGhvbiBOZXR3b3JrIFByb2dyYW1t
aW5nIDNyZCBFZDEYMBYGA1UEAxMPZnRwLmV4YW1wbGUuY29tMR8wHQYJKoZIhvcN
AQkBFhByb290QGV4YW1wbGUuY29tMIIBojANBgkqhkiG9w0BAQEFAAOCAY8AMIIB
igKCAYEA7m4GhmZCotIahNr5d9y2SXzZ7IXivxUD/9uF/e1cV9JIfuFEPKuUI75a
LFu+niswqGrI1XuBTMBy0TNhdBJN4G2yvUT0mwL1I8OWIsJAqrBoQkMRsMfxfgHQ
FqsOBnTz7Gqdv6fqNzJ/y3/PylYhMWBSuR6YevBzvkKUvlRr11geeqBQzUdu15f+
NnpiI/pr9G9j92nlTfJWm8IpMC4tQvc0WecC7r7p/Xc3sfNDr2GmrJOeenP1e2Wj
Qfy5vMCjccocaQ5UOkjfoDMQdiLsf1PLnkC8kRoGTkiZnoL+Sb2/atPTA7wv/K/b
q6yZqw71R3rKrtAOkNs+t3lC3oVi7F/GEgvahB1Ag7dBaBrg5vj6H5EYo+t3WfNL
Z9k5SPYZdbBOOhg3GoO7RYu87dIMw8tmpAIhrjuZDnMiK4SHMxyxbpmbP4vsM3yN
s2aGa1oCQH/OZE7iw+SlAbUb2PiXgXTNDeGG3pSB5wpiFiFx1nuzOx/7HKKLq0kP
6ySNgs+fAgMBAAEwDQYJKoZIhvcNAQEFBQADggGBAIz4BPYi7P1+qQNIBTO2ZMrI
0J0R+oTBHv24QI4qHB9TDwuZGuK8Qr30RhWeexxPwBHzi1UlVsFqbYTwI3z/PtoW
i0BoY9rZoSHY7ALUh9BB5JHpqhi1Hh3SATCs8Y9y9W1h+pRhLzmOADqLGkWkYzZU
uW2gp9rEtZSY53LAR7wNDPKlzEpc92rx9sFjuzdgwzz7U6u5msETtICv/LjeIYJG
f+FJekr8r11TH3Jmmg2Rzy6LtZ/k2vaEWiJw5nUW1Z++uRXp0FYcjtB7TI61GgeA
MZ63AWBsbUwQlRHG0dm3G4xTpfaOy5sp7wqw/uEyho8d7eZm7APv8JRv8/s7feGr
G5sQQ5xiJoDNmcvY1qPpt4MMSRY+MPJrz35oTbjooZTJz1yklnE4P8zgMFWx7xjw
+B+K5eXoq+b9MTFZQRMBZNejuPocqTCVxhKJsRnDmvXrnGYUS9OsQ6zYTo5/n6Yy
KFgv30SY4gpE+w/cERyyUm8EJmjSli8zEIGJH84LmQ==
-----END CERTIFICATE-----
