Certificate:
    Data:
        Version: 1 (0x0)
        Serial Number: 4 (0x4)
        Signature Algorithm: sha256WithRSAEncryption
        Issuer: C=us, ST=New York, L=New York, O=Example CA from Apress Media LLC, OU=Foundations of Python Network Programming 3rd Ed, CN=ca/emailAddress=ca@example.com
        Validity
            Not Before: Aug 15 16:00:15 2019 GMT
            Not After : Jul 22 16:00:15 2119 GMT
        Subject: C=us, ST=New York, O=Example from Apress Media LLC, OU=Foundations of Python Network Programming 3rd Ed, CN=mail.example.com/emailAddress=root@example.com
        Subject Public Key Info:
            Public Key Algorithm: rsaEncryption
                RSA Public-Key: (3072 bit)
                Modulus:
                    00:ba:21:9b:c2:d6:8c:f6:b6:38:08:7b:b9:6a:38:
                    8c:79:4f:91:21:50:fb:a6:83:ee:dc:cf:00:15:18:
                    30:1b:00:4c:9e:57:2a:c5:cb:0d:2f:e0:9a:bc:b7:
                    42:87:aa:1a:76:df:ce:4b:b5:63:a3:77:27:1d:3f:
                    c2:1a:27:4c:01:f9:dc:96:43:63:e5:ab:22:54:67:
                    51:e4:9d:60:37:82:84:bd:2d:71:a9:32:1b:21:b4:
                    51:e2:53:e4:52:35:07:6f:0f:a5:eb:05:5b:cc:8d:
                    fd:e0:6d:c0:d3:b3:12:b5:aa:78:0f:72:96:f0:04:
                    1e:9a:f5:76:62:91:81:15:46:ce:59:29:99:95:e1:
                    64:0c:d8:58:a6:54:fd:49:5b:27:2a:03:ca:31:75:
                    17:1d:6a:ac:94:a6:2b:11:cb:83:34:bd:84:94:a5:
                    38:31:77:ab:b4:43:dd:4b:5d:5e:79:54:1c:b0:de:
                    29:f1:48:14:09:cc:95:f4:3b:a9:b5:21:60:50:d0:
                    eb:53:c4:45:33:ac:a4:9a:d0:22:fa:7d:55:af:8b:
                    9b:28:8e:8f:66:9c:37:e1:63:7d:72:dd:f1:3e:ba:
                    d4:97:3f:c3:62:85:e0:47:42:17:9c:50:d3:8c:31:
                    6e:0d:83:a3:1b:67:4b:51:81:5c:d9:ab:12:9e:d7:
                    82:b6:13:90:31:d6:bd:2a:1d:fc:1e:d7:f7:ef:cb:
                    3f:d1:f6:b8:54:03:4c:c6:2c:f3:c4:33:f7:54:23:
                    a0:92:30:2d:10:71:85:b3:ac:e2:bb:84:a9:96:68:
                    65:15:c6:b3:1d:05:f7:a6:25:40:84:65:e5:6d:37:
                    8a:3b:46:c9:5b:ab:50:cf:92:57:4a:33:48:78:23:
                    50:e6:ec:7a:8a:e4:c9:a4:8e:56:02:e3:d2:ad:86:
                    cf:94:c8:50:0e:0d:55:65:fd:06:f5:5f:94:34:81:
                    1b:7c:2b:33:49:81:55:fb:07:85:44:38:e2:85:c8:
                    6a:9c:63:54:cb:00:58:2f:e1:3d
                Exponent: 65537 (0x10001)
    Signature Algorithm: sha256WithRSAEncryption
         b2:97:6f:ae:0b:6d:65:8d:e5:80:c3:5e:25:98:80:2f:ef:1c:
         57:ee:33:d8:47:18:74:fe:03:c9:10:63:f2:ac:92:5b:a6:5a:
         bb:81:5f:a6:31:65:51:78:7b:d6:6b:b0:9d:ad:2e:29:26:84:
         11:20:71:21:d2:b7:2f:21:30:91:4a:cf:01:e0:5a:e7:9c:f3:
         28:81:b2:b6:24:bd:29:c1:bf:18:bb:fe:73:52:ee:86:77:9e:
         9e:c8:d4:11:4d:52:50:c1:04:1b:11:ec:c6:6b:72:7f:96:a8:
         1d:0f:3d:df:f5:e0:c0:96:a6:c8:71:53:7a:36:f8:b9:fb:20:
         95:68:cb:24:50:92:c0:1a:04:e9:d3:03:72:82:a9:08:70:48:
         d8:15:a3:09:8c:dc:91:6e:0a:92:1f:f5:1a:14:dc:cc:16:04:
         06:fd:36:4a:93:c0:af:7e:d9:3d:ed:e5:84:10:9b:5e:86:08:
         11:b7:4c:35:82:0f:21:88:a6:dc:a1:32:0c:c5:79:76:c1:c2:
         16:db:35:33:77:52:c4:d5:48:8f:83:27:32:93:b6:dc:0e:f4:
         a7:40:9c:cb:22:29:45:ab:12:d2:7f:5d:e6:cb:eb:4d:f3:10:
         af:95:16:fb:c5:56:b5:b9:55:22:66:b2:fc:02:48:c1:ea:12:
         be:03:12:c7:4f:82:aa:3b:da:2c:d6:bf:71:8e:ba:a6:42:45:
         f4:72:8a:a4:65:da:fa:a4:24:34:dd:ff:37:60:a7:74:4c:41:
         58:2a:45:8a:5a:86:35:05:3d:d8:2c:3f:53:e8:bc:0d:3a:83:
         58:07:b7:01:17:c4:55:df:d4:8b:af:3e:bc:ed:da:2d:86:08:
         bc:a0:39:5d:f8:92:97:59:21:5b:98:5f:d6:23:5f:c0:cc:2f:
         ab:12:ca:bb:8c:5b:2c:14:30:93:24:26:de:85:0a:b5:c5:38:
         74:90:5b:ba:de:10:1b:c9:75:33:32:62:4a:a0:f2:b2:85:9b:
         54:28:f6:c8:14:00
-----BEGIN CERTIFICATE-----
MIIE/DCCA2QCAQQwDQYJKoZIhvcNAQELBQAwgcUxCzAJBgNVBAYTAnVzMREwDwYD
VQQIDAhOZXcgWW9yazERMA8GA1UEBwwITmV3IFlvcmsxKTAnBgNVBAoMIEV4YW1w
bGUgQ0EgZnJvbSBBcHJlc3MgTWVkaWEgTExDMTkwNwYDVQQLDDBGb3VuZGF0aW9u
cyBvZiBQeXRob24gTmV0d29yayBQcm9ncmFtbWluZyAzcmQgRWQxCzAJBgNVBAMM
AmNhMR0wGwYJKoZIhvcNAQkBFg5jYUBleGFtcGxlLmNvbTAgFw0xOTA4MTUxNjAw
MTVaGA8yMTE5MDcyMjE2MDAxNVowgb8xCzAJBgNVBAYTAnVzMREwDwYDVQQIDAhO
ZXcgWW9yazEmMCQGA1UECgwdRXhhbXBsZSBmcm9tIEFwcmVzcyBNZWRpYSBMTEMx
OTA3BgNVBAsMMEZvdW5kYXRpb25zIG9mIFB5dGhvbiBOZXR3b3JrIFByb2dyYW1t
aW5nIDNyZCBFZDEZMBcGA1UEAwwQbWFpbC5leGFtcGxlLmNvbTEfMB0GCSqGSIb3
DQEJARYQcm9vdEBleGFtcGxlLmNvbTCCAaIwDQYJKoZIhvcNAQEBBQADggGPADCC
AYoCggGBALohm8LWjPa2OAh7uWo4jHlPkSFQ+6aD7tzPABUYMBsATJ5XKsXLDS/g
mry3QoeqGnbfzku1Y6N3Jx0/whonTAH53JZDY+WrIlRnUeSdYDeChL0tcakyGyG0
UeJT5FI1B28PpesFW8yN/eBtwNOzErWqeA9ylvAEHpr1dmKRgRVGzlkpmZXhZAzY
WKZU/UlbJyoDyjF1Fx1qrJSmKxHLgzS9hJSlODF3q7RD3UtdXnlUHLDeKfFIFAnM
lfQ7qbUhYFDQ61PERTOspJrQIvp9Va+LmyiOj2acN+FjfXLd8T661Jc/w2KF4EdC
F5xQ04wxbg2DoxtnS1GBXNmrEp7XgrYTkDHWvSod/B7X9+/LP9H2uFQDTMYs88Qz
91QjoJIwLRBxhbOs4ruEqZZoZRXGsx0F96YlQIRl5W03ijtGyVurUM+SV0ozSHgj
UObseorkyaSOVgLj0q2Gz5TIUA4NVWX9BvVflDSBG3wrM0mBVfsHhUQ44oXIapxj
VMsAWC/hPQIDAQABMA0GCSqGSIb3DQEBCwUAA4IBgQCyl2+uC21ljeWAw14lmIAv
7xxX7jPYRxh0/gPJEGPyrJJbplq7gV+mMWVReHvWa7CdrS4pJoQRIHEh0rcvITCR
Ss8B4FrnnPMogbK2JL0pwb8Yu/5zUu6Gd56eyNQRTVJQwQQbEezGa3J/lqgdDz3f
9eDAlqbIcVN6Nvi5+yCVaMskUJLAGgTp0wNygqkIcEjYFaMJjNyRbgqSH/UaFNzM
FgQG/TZKk8Cvftk97eWEEJtehggRt0w1gg8hiKbcoTIMxXl2wcIW2zUzd1LE1UiP
gycyk7bcDvSnQJzLIilFqxLSf13my+tN8xCvlRb7xVa1uVUiZrL8AkjB6hK+AxLH
T4KqO9os1r9xjrqmQkX0coqkZdr6pCQ03f83YKd0TEFYKkWKWoY1BT3YLD9T6LwN
OoNYB7cBF8RV39SLrz687dothgi8oDld+JKXWSFbmF/WI1/AzC+rEsq7jFssFDCT
JCbehQq1xTh0kFu63hAbyXUzMmJKoPKyhZtUKPbIFAA=
-----END CERTIFICATE-----
