Certificate:
    Data:
        Version: 1 (0x0)
        Serial Number: 1 (0x1)
        Signature Algorithm: sha256WithRSAEncryption
        Issuer: C=us, ST=New York, L=New York, O=Example CA from Apress Media LLC, OU=Foundations of Python Network Programming 3rd Ed, CN=ca/emailAddress=ca@example.com
        Validity
            Not Before: Aug 15 16:00:15 2019 GMT
            Not After : Jul 22 16:00:15 2119 GMT
        Subject: C=us, ST=New York, O=Example from Apress Media LLC, OU=Foundations of Python Network Programming 3rd Ed, CN=sample_client/emailAddress=sample_client@example.com
        Subject Public Key Info:
            Public Key Algorithm: rsaEncryption
                RSA Public-Key: (3072 bit)
                Modulus:
                    00:ca:bb:a9:e6:2d:29:3a:7d:a6:79:da:74:28:90:
                    c8:3a:a0:ad:ed:80:ce:04:8a:75:94:48:13:e8:83:
                    c0:7b:e0:50:78:b8:7d:d8:b0:ab:50:4b:6f:3d:73:
                    8a:aa:2c:ae:6c:98:4f:b0:ef:25:ab:05:86:44:f1:
                    f5:54:5e:dd:82:df:41:0f:e4:bc:ea:32:3e:6a:7e:
                    07:53:39:8e:e4:23:25:3b:21:fc:ba:db:34:6f:6f:
                    6a:7f:3a:47:de:eb:5c:f3:77:30:c4:ce:01:0c:f6:
                    b0:77:f4:4b:7e:11:3c:08:4b:3c:28:75:7f:07:4a:
                    9c:7c:a3:e3:6a:66:15:80:63:db:46:54:a0:29:a2:
                    81:be:15:1e:78:ea:9d:51:c3:37:b8:bf:86:71:30:
                    b2:03:66:e9:08:a3:02:42:46:45:b1:28:e2:87:b0:
                    6c:8d:50:ae:2e:83:2a:9f:ff:f9:a4:21:cc:ca:49:
                    b3:e2:b1:69:ca:2d:03:c6:c6:52:e4:0b:0b:e6:77:
                    94:e5:32:52:91:e2:dc:cf:24:14:03:a4:1e:99:5b:
                    41:42:99:d3:c3:db:7b:3e:d2:66:37:38:22:41:1d:
                    40:f3:22:2e:38:7b:5a:37:39:9d:2f:e7:a0:99:ba:
                    e1:fc:a1:c4:0e:74:18:47:36:5e:41:07:f7:f1:c3:
                    31:e1:72:8c:03:9c:ba:4e:a1:c3:8a:25:10:f6:c1:
                    0b:d1:24:00:a9:f3:94:80:d1:06:ae:ed:8e:6c:75:
                    32:ca:22:ce:95:c5:46:47:47:38:8d:a4:51:bc:7b:
                    48:a2:f1:61:ea:27:40:ba:ec:8f:b5:40:34:19:5a:
                    6f:78:77:e4:1b:12:01:e3:1c:4d:09:66:b2:da:55:
                    39:4b:2f:17:5e:9f:0f:a1:fa:d9:24:16:e4:4b:e8:
                    26:2e:7e:d4:4b:e0:02:89:50:66:a6:f3:f7:c8:a6:
                    3d:e6:0a:5c:7a:10:94:5e:2b:98:c4:70:b9:7a:43:
                    d1:48:b2:5b:5b:a1:71:4d:ac:af
                Exponent: 65537 (0x10001)
    Signature Algorithm: sha256WithRSAEncryption
         32:f8:fe:03:c0:66:b0:78:3c:25:69:94:ec:c5:ad:f8:d4:8e:
         47:f4:f3:13:43:24:4c:2f:7b:22:55:50:2e:45:61:f3:87:61:
         5b:64:34:64:00:1c:22:db:89:a2:e6:c8:11:74:b4:d6:c5:48:
         9f:d3:93:7b:89:de:0c:d1:d8:0c:de:26:c3:20:e1:25:37:1c:
         37:e7:a3:e3:ac:e0:9f:05:15:05:a0:26:17:e4:83:9a:66:ef:
         1a:91:f4:b3:d1:7b:9b:dd:84:09:6b:64:0c:fc:bb:29:1d:73:
         7e:26:49:76:f1:e5:ad:ab:ea:1e:3e:df:ab:30:3c:83:e4:cb:
         43:84:c5:82:49:ad:26:99:02:18:eb:aa:1c:9f:01:1a:30:ae:
         56:b2:f7:6e:73:0e:8d:5c:e8:fa:9a:d9:58:f4:b6:74:cf:4a:
         ab:02:fa:ea:23:84:75:db:6c:9d:25:0c:93:5f:9b:49:7f:c9:
         65:cb:f8:32:12:76:1f:f5:8f:d1:36:61:97:f4:66:d3:68:24:
         02:1a:8e:6d:22:e1:59:10:c2:68:8d:2b:d2:e6:5b:34:2e:b4:
         12:ee:7e:81:54:71:dd:da:83:e1:d8:9a:53:55:6c:19:1e:3b:
         d5:5e:d0:1e:57:55:16:fd:dd:6d:d1:22:45:14:4c:50:11:7a:
         59:45:ef:a7:a8:d1:98:83:4f:8a:5f:dd:91:2a:c2:c0:14:8e:
         5a:1d:87:3d:b7:e4:79:3a:02:40:d5:ad:6a:d0:ed:d6:0e:db:
         a4:9b:46:02:3c:c9:b7:b2:62:ce:49:55:d4:84:ff:2c:73:a4:
         fe:4f:80:5a:7f:bc:a5:d9:d3:c0:15:d6:ef:5e:39:19:5a:bb:
         da:ec:ab:3d:0f:f4:be:a0:8b:be:a7:d0:00:43:8e:9a:e5:dd:
         2d:84:76:13:eb:c9:fd:38:49:4b:75:f4:76:ff:9f:79:fe:b6:
         8b:4a:c6:98:d1:b9:39:1f:f8:ac:98:b6:35:ec:79:bd:11:f0:
         39:74:6e:53:1e:03
-----BEGIN CERTIFICATE-----
MIIFAjCCA2oCAQEwDQYJKoZIhvcNAQELBQAwgcUxCzAJBgNVBAYTAnVzMREwDwYD
VQQIDAhOZXcgWW9yazERMA8GA1UEBwwITmV3IFlvcmsxKTAnBgNVBAoMIEV4YW1w
bGUgQ0EgZnJvbSBBcHJlc3MgTWVkaWEgTExDMTkwNwYDVQQLDDBGb3VuZGF0aW9u
cyBvZiBQeXRob24gTmV0d29yayBQcm9ncmFtbWluZyAzcmQgRWQxCzAJBgNVBAMM
AmNhMR0wGwYJKoZIhvcNAQkBFg5jYUBleGFtcGxlLmNvbTAgFw0xOTA4MTUxNjAw
MTVaGA8yMTE5MDcyMjE2MDAxNVowgcUxCzAJBgNVBAYTAnVzMREwDwYDVQQIDAhO
ZXcgWW9yazEmMCQGA1UECgwdRXhhbXBsZSBmcm9tIEFwcmVzcyBNZWRpYSBMTEMx
OTA3BgNVBAsMMEZvdW5kYXRpb25zIG9mIFB5dGhvbiBOZXR3b3JrIFByb2dyYW1t
aW5nIDNyZCBFZDEWMBQGA1UEAwwNc2FtcGxlX2NsaWVudDEoMCYGCSqGSIb3DQEJ
ARYZc2FtcGxlX2NsaWVudEBleGFtcGxlLmNvbTCCAaIwDQYJKoZIhvcNAQEBBQAD
ggGPADCCAYoCggGBAMq7qeYtKTp9pnnadCiQyDqgre2AzgSKdZRIE+iDwHvgUHi4
fdiwq1BLbz1ziqosrmyYT7DvJasFhkTx9VRe3YLfQQ/kvOoyPmp+B1M5juQjJTsh
/LrbNG9van86R97rXPN3MMTOAQz2sHf0S34RPAhLPCh1fwdKnHyj42pmFYBj20ZU
oCmigb4VHnjqnVHDN7i/hnEwsgNm6QijAkJGRbEo4oewbI1Qri6DKp//+aQhzMpJ
s+KxacotA8bGUuQLC+Z3lOUyUpHi3M8kFAOkHplbQUKZ08Pbez7SZjc4IkEdQPMi
Ljh7Wjc5nS/noJm64fyhxA50GEc2XkEH9/HDMeFyjAOcuk6hw4olEPbBC9EkAKnz
lIDRBq7tjmx1MsoizpXFRkdHOI2kUbx7SKLxYeonQLrsj7VANBlab3h35BsSAeMc
TQlmstpVOUsvF16fD6H62SQW5EvoJi5+1EvgAolQZqbz98imPeYKXHoQlF4rmMRw
uXpD0UiyW1uhcU2srwIDAQABMA0GCSqGSIb3DQEBCwUAA4IBgQAy+P4DwGaweDwl
aZTsxa341I5H9PMTQyRML3siVVAuRWHzh2FbZDRkABwi24mi5sgRdLTWxUif05N7
id4M0dgM3ibDIOElNxw356PjrOCfBRUFoCYX5IOaZu8akfSz0Xub3YQJa2QM/Lsp
HXN+Jkl28eWtq+oePt+rMDyD5MtDhMWCSa0mmQIY66ocnwEaMK5Wsvducw6NXOj6
mtlY9LZ0z0qrAvrqI4R122ydJQyTX5tJf8lly/gyEnYf9Y/RNmGX9GbTaCQCGo5t
IuFZEMJojSvS5ls0LrQS7n6BVHHd2oPh2JpTVWwZHjvVXtAeV1UW/d1t0SJFFExQ
EXpZRe+nqNGYg0+KX92RKsLAFI5aHYc9t+R5OgJA1a1q0O3WDtukm0YCPMm3smLO
SVXUhP8sc6T+T4Baf7yl2dPAFdbvXjkZWrva7Ks9D/S+oIu+p9AAQ46a5d0thHYT
68n9OElLdfR2/595/raLSsaY0bk5H/ismLY17Hm9EfA5dG5THgM=
-----END CERTIFICATE-----
