Certificate:
    Data:
        Version: 1 (0x0)
        Serial Number: 4 (0x4)
    Signature Algorithm: sha256WithRSAEncryption
        Issuer: C=us, ST=New York, L=New York, O=Example CA from Apress Media LLC, OU=Foundations of Python Network Programming 3rd Ed, CN=ca/emailAddress=ca@example.com
        Validity
            Not Before: Jun 25 19:55:41 2014 GMT
            Not After : Jun  1 19:55:41 2114 GMT
        Subject: C=us, ST=New York, O=Example from Apress Media LLC, OU=Foundations of Python Network Programming 3rd Ed, CN=sample_client/emailAddress=sample_client@example.com
        Subject Public Key Info:
            Public Key Algorithm: rsaEncryption
                Public-Key: (3072 bit)
                Modulus:
                    00:ca:bb:a9:e6:2d:29:3a:7d:a6:79:da:74:28:90:
                    c8:3a:a0:ad:ed:80:ce:04:8a:75:94:48:13:e8:83:
                    c0:7b:e0:50:78:b8:7d:d8:b0:ab:50:4b:6f:3d:73:
                    8a:aa:2c:ae:6c:98:4f:b0:ef:25:ab:05:86:44:f1:
                    f5:54:5e:dd:82:df:41:0f:e4:bc:ea:32:3e:6a:7e:
                    07:53:39:8e:e4:23:25:3b:21:fc:ba:db:34:6f:6f:
                    6a:7f:3a:47:de:eb:5c:f3:77:30:c4:ce:01:0c:f6:
                    b0:77:f4:4b:7e:11:3c:08:4b:3c:28:75:7f:07:4a:
                    9c:7c:a3:e3:6a:66:15:80:63:db:46:54:a0:29:a2:
                    81:be:15:1e:78:ea:9d:51:c3:37:b8:bf:86:71:30:
                    b2:03:66:e9:08:a3:02:42:46:45:b1:28:e2:87:b0:
                    6c:8d:50:ae:2e:83:2a:9f:ff:f9:a4:21:cc:ca:49:
                    b3:e2:b1:69:ca:2d:03:c6:c6:52:e4:0b:0b:e6:77:
                    94:e5:32:52:91:e2:dc:cf:24:14:03:a4:1e:99:5b:
                    41:42:99:d3:c3:db:7b:3e:d2:66:37:38:22:41:1d:
                    40:f3:22:2e:38:7b:5a:37:39:9d:2f:e7:a0:99:ba:
                    e1:fc:a1:c4:0e:74:18:47:36:5e:41:07:f7:f1:c3:
                    31:e1:72:8c:03:9c:ba:4e:a1:c3:8a:25:10:f6:c1:
                    0b:d1:24:00:a9:f3:94:80:d1:06:ae:ed:8e:6c:75:
                    32:ca:22:ce:95:c5:46:47:47:38:8d:a4:51:bc:7b:
                    48:a2:f1:61:ea:27:40:ba:ec:8f:b5:40:34:19:5a:
                    6f:78:77:e4:1b:12:01:e3:1c:4d:09:66:b2:da:55:
                    39:4b:2f:17:5e:9f:0f:a1:fa:d9:24:16:e4:4b:e8:
                    26:2e:7e:d4:4b:e0:02:89:50:66:a6:f3:f7:c8:a6:
                    3d:e6:0a:5c:7a:10:94:5e:2b:98:c4:70:b9:7a:43:
                    d1:48:b2:5b:5b:a1:71:4d:ac:af
                Exponent: 65537 (0x10001)
    Signature Algorithm: sha256WithRSAEncryption
         5f:31:3b:d0:81:60:23:68:57:b5:3d:4d:79:ec:e1:68:4e:ce:
         4a:dc:69:1a:db:35:58:ea:a5:f2:6a:dc:0e:e9:3a:7e:d5:9d:
         f2:07:14:30:0f:6b:62:cc:81:a5:94:87:66:54:b5:e2:38:3e:
         a3:1b:79:7f:35:b8:94:20:36:ee:9e:bf:63:79:6f:d2:b6:89:
         87:88:af:18:f1:65:df:1f:4b:60:7f:cc:6b:03:e4:da:0e:8b:
         da:1a:f3:0d:ec:19:5b:0e:27:f9:a1:c5:f1:3d:8e:86:75:e9:
         19:4e:9f:ad:b9:11:2f:8e:60:67:cc:27:2a:a5:a8:71:2e:45:
         45:94:f5:c8:11:e1:78:ed:bb:14:6f:fb:e3:2d:89:25:32:b3:
         de:61:8b:e1:f7:e9:b0:fd:ed:0f:14:bc:55:52:1d:0e:93:e4:
         8b:7b:b6:02:ea:5e:b4:4e:6d:dc:af:58:b1:3b:b2:49:4b:3d:
         e7:ea:6a:6f:54:11:96:dc:68:40:f4:22:20:fd:17:9b:9e:bc:
         43:dc:cd:6f:ed:7a:8c:6c:21:29:4f:e3:af:06:91:4e:ce:fc:
         16:2d:bf:33:f0:29:8c:77:9e:86:36:eb:9e:b5:61:92:c9:d8:
         7c:57:7d:e9:b5:70:69:28:83:f0:ef:7c:be:45:98:91:c9:16:
         98:90:4f:d7:35:50:a0:49:98:8f:ec:33:d0:cb:a8:30:98:a3:
         de:0a:dc:86:ae:66:03:d7:54:6c:c0:84:14:ce:34:8a:05:2b:
         2a:a9:f5:d3:64:75:7f:8b:44:84:84:c5:75:ec:0d:7e:08:10:
         13:4e:64:91:b7:26:f3:a3:1d:dd:21:0d:f5:8e:ad:77:74:4b:
         82:f1:a3:9e:52:46:c8:d3:7f:f6:cc:b8:97:01:15:90:57:c3:
         09:fb:66:6c:68:92:6d:6e:40:b5:d6:16:af:26:16:a9:d4:03:
         af:7c:da:23:ef:ac:c7:23:a2:02:da:11:5c:88:37:53:2a:70:
         5b:9a:62:ae:68:80
-----BEGIN CERTIFICATE-----
MIIFAjCCA2oCAQQwDQYJKoZIhvcNAQELBQAwgcUxCzAJBgNVBAYTAnVzMREwDwYD
VQQIEwhOZXcgWW9yazERMA8GA1UEBxMITmV3IFlvcmsxKTAnBgNVBAoTIEV4YW1w
bGUgQ0EgZnJvbSBBcHJlc3MgTWVkaWEgTExDMTkwNwYDVQQLEzBGb3VuZGF0aW9u
cyBvZiBQeXRob24gTmV0d29yayBQcm9ncmFtbWluZyAzcmQgRWQxCzAJBgNVBAMT
AmNhMR0wGwYJKoZIhvcNAQkBFg5jYUBleGFtcGxlLmNvbTAgFw0xNDA2MjUxOTU1
NDFaGA8yMTE0MDYwMTE5NTU0MVowgcUxCzAJBgNVBAYTAnVzMREwDwYDVQQIEwhO
ZXcgWW9yazEmMCQGA1UEChMdRXhhbXBsZSBmcm9tIEFwcmVzcyBNZWRpYSBMTEMx
OTA3BgNVBAsTMEZvdW5kYXRpb25zIG9mIFB5dGhvbiBOZXR3b3JrIFByb2dyYW1t
aW5nIDNyZCBFZDEWMBQGA1UEAxQNc2FtcGxlX2NsaWVudDEoMCYGCSqGSIb3DQEJ
ARYZc2FtcGxlX2NsaWVudEBleGFtcGxlLmNvbTCCAaIwDQYJKoZIhvcNAQEBBQAD
ggGPADCCAYoCggGBAMq7qeYtKTp9pnnadCiQyDqgre2AzgSKdZRIE+iDwHvgUHi4
fdiwq1BLbz1ziqosrmyYT7DvJasFhkTx9VRe3YLfQQ/kvOoyPmp+B1M5juQjJTsh
/LrbNG9van86R97rXPN3MMTOAQz2sHf0S34RPAhLPCh1fwdKnHyj42pmFYBj20ZU
oCmigb4VHnjqnVHDN7i/hnEwsgNm6QijAkJGRbEo4oewbI1Qri6DKp//+aQhzMpJ
s+KxacotA8bGUuQLC+Z3lOUyUpHi3M8kFAOkHplbQUKZ08Pbez7SZjc4IkEdQPMi
Ljh7Wjc5nS/noJm64fyhxA50GEc2XkEH9/HDMeFyjAOcuk6hw4olEPbBC9EkAKnz
lIDRBq7tjmx1MsoizpXFRkdHOI2kUbx7SKLxYeonQLrsj7VANBlab3h35BsSAeMc
TQlmstpVOUsvF16fD6H62SQW5EvoJi5+1EvgAolQZqbz98imPeYKXHoQlF4rmMRw
uXpD0UiyW1uhcU2srwIDAQABMA0GCSqGSIb3DQEBCwUAA4IBgQBfMTvQgWAjaFe1
PU157OFoTs5K3Gka2zVY6qXyatwO6Tp+1Z3yBxQwD2tizIGllIdmVLXiOD6jG3l/
NbiUIDbunr9jeW/StomHiK8Y8WXfH0tgf8xrA+TaDovaGvMN7BlbDif5ocXxPY6G
dekZTp+tuREvjmBnzCcqpahxLkVFlPXIEeF47bsUb/vjLYklMrPeYYvh9+mw/e0P
FLxVUh0Ok+SLe7YC6l60Tm3cr1ixO7JJSz3n6mpvVBGW3GhA9CIg/RebnrxD3M1v
7XqMbCEpT+OvBpFOzvwWLb8z8CmMd56GNuuetWGSydh8V33ptXBpKIPw73y+RZiR
yRaYkE/XNVCgSZiP7DPQy6gwmKPeCtyGrmYD11RswIQUzjSKBSsqqfXTZHV/i0SE
hMV17A1+CBATTmSRtybzox3dIQ31jq13dEuC8aOeUkbI03/2zLiXARWQV8MJ+2Zs
aJJtbkC11havJhap1AOvfNoj76zHI6IC2hFciDdTKnBbmmKuaIA=
-----END CERTIFICATE-----
-----BEGIN RSA PRIVATE KEY-----
MIIG4wIBAAKCAYEAyrup5i0pOn2medp0KJDIOqCt7YDOBIp1lEgT6IPAe+BQeLh9
2LCrUEtvPXOKqiyubJhPsO8lqwWGRPH1VF7dgt9BD+S86jI+an4HUzmO5CMlOyH8
uts0b29qfzpH3utc83cwxM4BDPawd/RLfhE8CEs8KHV/B0qcfKPjamYVgGPbRlSg
KaKBvhUeeOqdUcM3uL+GcTCyA2bpCKMCQkZFsSjih7BsjVCuLoMqn//5pCHMykmz
4rFpyi0DxsZS5AsL5neU5TJSkeLczyQUA6QemVtBQpnTw9t7PtJmNzgiQR1A8yIu
OHtaNzmdL+egmbrh/KHEDnQYRzZeQQf38cMx4XKMA5y6TqHDiiUQ9sEL0SQAqfOU
gNEGru2ObHUyyiLOlcVGR0c4jaRRvHtIovFh6idAuuyPtUA0GVpveHfkGxIB4xxN
CWay2lU5Sy8XXp8PofrZJBbkS+gmLn7US+ACiVBmpvP3yKY95gpcehCUXiuYxHC5
ekPRSLJbW6FxTayvAgMBAAECggGAeW3KJ9oo9aXJDvdv19RQef0/8B/URhgAsR4y
/nPb2NbUnFo01pOLKP7l1DLefWth1h2srdewAi2+7JDYVv6zQu4h9DkXhlct129B
R/ITykXayP5keC9Pyuc7LJVl8vmapSFhDqAtNOyVamPiy9Ha2UTm9Xza5y0jaexo
DJS0kEA/WHLbs9RoTcgshlRQgmahe4EML8Pw++Sp88hfU/7vQ1uvw4JCoqoOikF6
SHdzuYGdPhTDMCb/rF8mAetMPtb16UXYSZPg9e2vQoGXwPrBECwe4wenczhkWMvr
B3DEU/jSNNs8ZGxOU9WZRsFSpVjAqa/VlgkXYAzhdSh/jd4rOP2PYDqbThU2GIo3
9FlsnpoOHKgVYG8Q+jSiNHMHjN1YyBFKq5ndCPvFLtdESVU/CLZxBIzpyzsgvZVQ
5XFEMefPEu1yVv0ao5fWuVSKX2hg8I55xcDEqLCiMRNiPHoOwz21Y8H4RX5PQtVc
ECSGCpTT6qGfZM6QskkvLpA3lY0xAoHBAP3TN0ir9Fq/566jqxWGxTSyJiavnsMZ
shRfE48hN9cYYrcXzTX5MP+tFpX6dVTtWR1dE8bQPZ5OWjovNmRL1fsHDaQS72+p
o5IMqmtt6GKHluIWmXLpTyEt6ETWxMD92Eh654T0f9SrWLNaeN++OUekikgm8gE6
qEly+THNFOOlLpOuI+kCf9+NLqMyYIUoq1YtpPzUQQoHOw7N/T/hY4Z6REgOw19n
TUkFZhCnv5Mnphs1nw/plEpVPORTnmIZAwKBwQDMeF+mYm4rJUV/jifhMtFv8sRt
2V11GpZNau/sX06o5/aMnMSwR3l4oqB6Ds+9Z51VipRAMBy0EdXrJ/nlp0yDt2qC
ezM5vzdKxkOSUetH2uYXYvykaIyRYI+fOwOd0ZDa8+18UQWUuFelv6h1kcWpsBQy
YLlkomePblN/bi/OpgoxBekiKz3dvnc/Kc6F97n4nZFOiwZtwr5f0G9uoDS55T9N
2hrPilMzK1fPGpwPif19kKdbqoJ7hxHQ0uPnb+UCgcBd0dR9aBHJ+WUJiDWUn1wF
PlQbuI5WTwkjvoDcRsr9FmZmhsWzTYhu+OuARDNaUOC/mcfVlOMxwIRZPVo9eEp/
nvvLybP28h0jvsq/KsDaqoN6zh+p+dLl0LIpv7i6HRn0sHkjC7y0PyFqKebDzOwf
LxJt2PdavPO3MmgpoEQ4YLX2oEdluSbK2sSCTfyfO4kZMYXqbgocSs/piPoywnyn
GEpk2BAfE2/drcEsJtUI737WT9ubZhsJ3rfDLaU9XUECgcBc07VQ+1Tav6QKocYX
JhQRR9zHpiwYswZThV4BKM+0PQMgmTdudDSAgQxr/XdwnK7AHBbsASu20HYWuWJp
UYeaMNXpAPejmt0GVHZu4kP3rjhRm73pAhH3Gih5+LfOmUqzLJS/oKTw/LPF6voW
ziQ3wlmY+XKRbm2nn0XHD4YiwhzUXsOVoJ4IoqTOhzNcfLfwV9CVIOa9Q/Fb3GwK
hC8LyjjwJjmPyVO2YlIOEx2QrGvp6pcgNYvhetOqw2N2OcUCgcEA9ltSkLETC6Zs
ibux30OpZgFAh4PDAvH/f5z5UnCwuzOTp2JNbIwIBgcy4U4S48xQ4f97ktHSFF4M
7gzr9xl4s8GWOwMfSHv4z0+sP7zO52P9/XXmfrYthLAuiX+e2OC5s4DBF2HL4C2S
w0Xi79aujwdxZPg/hCHL06Fqk935VmF1BnfSUQL1MrUpSyMh2M00OBCQczxV6pHd
4Lm4glrA8HH3Swycz5IY2FmLwSNZwP/vZoM4SVq94EnEPoOQJxQ8
-----END RSA PRIVATE KEY-----
