Certificate:
    Data:
        Version: 1 (0x0)
        Serial Number: 2 (0x2)
        Signature Algorithm: sha256WithRSAEncryption
        Issuer: C=us, ST=New York, L=New York, O=Example CA from Apress Media LLC, OU=Foundations of Python Network Programming 3rd Ed, CN=ca/emailAddress=ca@example.com
        Validity
            Not Before: Aug 15 16:00:15 2019 GMT
            Not After : Jul 22 16:00:15 2119 GMT
        Subject: C=us, ST=New York, O=Example from Apress Media LLC, OU=Foundations of Python Network Programming 3rd Ed, CN=localhost/emailAddress=localhost@example.com
        Subject Public Key Info:
            Public Key Algorithm: rsaEncryption
                RSA Public-Key: (3072 bit)
                Modulus:
                    00:bf:56:f7:58:c9:98:8d:4e:29:f2:2f:6c:46:3c:
                    26:54:41:52:5b:74:bf:95:3c:89:f7:e3:1c:82:31:
                    05:be:7d:ea:05:41:b8:02:cd:7d:e4:5e:92:32:12:
                    1b:99:ff:76:6e:09:ab:12:b8:30:23:21:25:3c:44:
                    99:e8:dd:e6:bd:83:e9:38:56:ac:39:a0:a1:4f:8b:
                    d3:ce:f5:1f:86:02:7e:de:48:71:11:bc:9f:8c:27:
                    a7:41:a9:57:89:4b:4e:ac:43:82:8d:4f:00:2c:11:
                    4f:ec:af:d0:fa:90:91:1f:16:8d:0f:ef:be:09:c1:
                    0f:fe:9a:43:88:d6:14:d0:27:46:4e:c4:3d:6a:d5:
                    2a:60:f0:b7:db:16:a6:84:78:5a:33:19:43:55:f5:
                    7a:56:52:56:ae:e6:1c:4f:3b:2f:d8:b8:29:9f:a8:
                    f6:4b:55:45:6e:ba:1f:94:d7:30:a9:25:72:3a:11:
                    ed:a5:57:c7:f1:76:f9:ce:86:87:55:70:15:aa:e6:
                    7a:f0:ff:7c:a9:45:93:28:1a:ee:6e:b0:a8:87:5e:
                    43:2d:c8:ef:27:36:c3:24:15:93:ba:46:11:0a:1c:
                    92:82:95:c3:f5:9d:a2:db:76:4b:86:d4:b5:67:f8:
                    99:c6:28:71:55:65:bd:c5:73:4b:48:73:41:1c:00:
                    50:c1:05:9e:1a:38:10:dd:e2:b0:ba:ad:46:20:ee:
                    06:d0:0d:24:d1:95:4d:15:bf:00:ce:d7:dc:de:1b:
                    8e:ee:66:25:31:1f:9e:b7:94:f7:58:c0:86:06:57:
                    ca:50:a6:73:f2:92:3b:6a:6d:22:e9:ed:b5:ce:0c:
                    ea:db:d9:7f:b2:a7:04:25:be:62:10:45:02:0b:1c:
                    6e:c4:8b:de:ac:23:e5:e4:84:71:92:a3:83:81:c9:
                    d7:92:83:c7:ee:24:05:54:91:dc:77:85:94:16:84:
                    21:9d:11:53:3d:ca:ab:1c:f7:db:b5:f8:2e:bb:5d:
                    af:06:74:28:75:10:92:6a:b2:f3
                Exponent: 65537 (0x10001)
    Signature Algorithm: sha256WithRSAEncryption
         8f:3d:77:21:c8:21:b4:dc:20:c9:03:94:7f:7e:fe:36:74:62:
         7a:10:88:35:ee:b3:55:ef:49:37:59:28:7b:9f:23:e0:49:ef:
         a2:e4:57:b0:ef:73:46:ef:de:34:01:86:1f:0d:5e:84:c7:51:
         c0:a8:07:95:44:be:15:ef:0d:f1:02:62:e5:24:07:86:70:32:
         1c:d2:2e:bd:2a:d3:54:f3:6a:6d:4c:6d:79:ea:aa:07:1b:45:
         3a:2c:3b:7d:c4:f4:a4:36:ae:3a:79:83:23:c2:ab:6f:4e:27:
         b7:f1:16:20:52:c1:be:65:eb:fc:78:a9:89:36:16:de:55:6b:
         bf:bb:39:9d:3b:31:64:97:9f:ea:c5:ae:9e:99:52:b5:00:1c:
         e2:fd:7d:d2:c6:8c:4b:9e:dd:f6:55:36:07:8e:11:6e:10:7a:
         ea:68:fc:36:f8:ba:7c:d0:02:e6:a6:4f:d8:99:b8:2d:27:3a:
         3d:06:5b:7e:f5:43:b1:18:33:65:69:7e:51:c8:cc:74:6b:03:
         88:c5:8c:7b:3f:f7:cd:b9:77:48:ab:51:6f:9e:83:8a:97:7e:
         0e:43:2a:1a:03:c1:a6:53:bb:b9:e2:48:83:05:c4:43:3d:d5:
         a9:34:51:a9:2c:5f:ec:f5:eb:66:f7:15:67:73:cb:38:84:fc:
         8b:bb:ab:67:40:92:10:40:46:58:a8:f5:c6:72:97:dd:b1:b6:
         14:b1:5c:68:cc:6b:07:64:7a:cb:48:e2:29:a7:58:29:03:bc:
         52:17:4c:38:60:34:41:8d:1a:bc:80:85:87:96:ad:a0:9b:ac:
         8b:94:e6:72:c3:e3:a0:9a:0a:76:84:cd:54:2f:1a:5b:d4:5c:
         38:cb:cc:16:2f:22:92:18:a4:a3:f7:8d:01:b0:c5:43:33:83:
         ae:cf:db:13:7f:56:10:d5:49:c3:c6:09:cd:ba:71:7d:aa:38:
         84:d8:97:37:ff:a7:66:a5:4b:5b:b6:67:3b:31:e0:f3:66:1e:
         a1:12:07:92:32:46
-----BEGIN CERTIFICATE-----
MIIE+jCCA2ICAQIwDQYJKoZIhvcNAQELBQAwgcUxCzAJBgNVBAYTAnVzMREwDwYD
VQQIDAhOZXcgWW9yazERMA8GA1UEBwwITmV3IFlvcmsxKTAnBgNVBAoMIEV4YW1w
bGUgQ0EgZnJvbSBBcHJlc3MgTWVkaWEgTExDMTkwNwYDVQQLDDBGb3VuZGF0aW9u
cyBvZiBQeXRob24gTmV0d29yayBQcm9ncmFtbWluZyAzcmQgRWQxCzAJBgNVBAMM
AmNhMR0wGwYJKoZIhvcNAQkBFg5jYUBleGFtcGxlLmNvbTAgFw0xOTA4MTUxNjAw
MTVaGA8yMTE5MDcyMjE2MDAxNVowgb0xCzAJBgNVBAYTAnVzMREwDwYDVQQIDAhO
ZXcgWW9yazEmMCQGA1UECgwdRXhhbXBsZSBmcm9tIEFwcmVzcyBNZWRpYSBMTEMx
OTA3BgNVBAsMMEZvdW5kYXRpb25zIG9mIFB5dGhvbiBOZXR3b3JrIFByb2dyYW1t
aW5nIDNyZCBFZDESMBAGA1UEAwwJbG9jYWxob3N0MSQwIgYJKoZIhvcNAQkBFhVs
b2NhbGhvc3RAZXhhbXBsZS5jb20wggGiMA0GCSqGSIb3DQEBAQUAA4IBjwAwggGK
AoIBgQC/VvdYyZiNTinyL2xGPCZUQVJbdL+VPIn34xyCMQW+feoFQbgCzX3kXpIy
EhuZ/3ZuCasSuDAjISU8RJno3ea9g+k4Vqw5oKFPi9PO9R+GAn7eSHERvJ+MJ6dB
qVeJS06sQ4KNTwAsEU/sr9D6kJEfFo0P774JwQ/+mkOI1hTQJ0ZOxD1q1Spg8Lfb
FqaEeFozGUNV9XpWUlau5hxPOy/YuCmfqPZLVUVuuh+U1zCpJXI6Ee2lV8fxdvnO
hodVcBWq5nrw/3ypRZMoGu5usKiHXkMtyO8nNsMkFZO6RhEKHJKClcP1naLbdkuG
1LVn+JnGKHFVZb3Fc0tIc0EcAFDBBZ4aOBDd4rC6rUYg7gbQDSTRlU0VvwDO19ze
G47uZiUxH563lPdYwIYGV8pQpnPykjtqbSLp7bXODOrb2X+ypwQlvmIQRQILHG7E
i96sI+XkhHGSo4OBydeSg8fuJAVUkdx3hZQWhCGdEVM9yqsc99u1+C67Xa8GdCh1
EJJqsvMCAwEAATANBgkqhkiG9w0BAQsFAAOCAYEAjz13IcghtNwgyQOUf37+NnRi
ehCINe6zVe9JN1koe58j4EnvouRXsO9zRu/eNAGGHw1ehMdRwKgHlUS+Fe8N8QJi
5SQHhnAyHNIuvSrTVPNqbUxteeqqBxtFOiw7fcT0pDauOnmDI8Krb04nt/EWIFLB
vmXr/HipiTYW3lVrv7s5nTsxZJef6sWunplStQAc4v190saMS57d9lU2B44RbhB6
6mj8Nvi6fNAC5qZP2Jm4LSc6PQZbfvVDsRgzZWl+UcjMdGsDiMWMez/3zbl3SKtR
b56Dipd+DkMqGgPBplO7ueJIgwXEQz3VqTRRqSxf7PXrZvcVZ3PLOIT8i7urZ0CS
EEBGWKj1xnKX3bG2FLFcaMxrB2R6y0jiKadYKQO8UhdMOGA0QY0avICFh5atoJus
i5TmcsPjoJoKdoTNVC8aW9RcOMvMFi8ikhiko/eNAbDFQzODrs/bE39WENVJw8YJ
zbpxfao4hNiXN/+nZqVLW7ZnOzHg82YeoRIHkjJG
-----END CERTIFICATE-----
-----BEGIN RSA PRIVATE KEY-----
MIIG4wIBAAKCAYEAv1b3WMmYjU4p8i9sRjwmVEFSW3S/lTyJ9+McgjEFvn3qBUG4
As195F6SMhIbmf92bgmrErgwIyElPESZ6N3mvYPpOFasOaChT4vTzvUfhgJ+3khx
EbyfjCenQalXiUtOrEOCjU8ALBFP7K/Q+pCRHxaND+++CcEP/ppDiNYU0CdGTsQ9
atUqYPC32xamhHhaMxlDVfV6VlJWruYcTzsv2Lgpn6j2S1VFbroflNcwqSVyOhHt
pVfH8Xb5zoaHVXAVquZ68P98qUWTKBrubrCoh15DLcjvJzbDJBWTukYRChySgpXD
9Z2i23ZLhtS1Z/iZxihxVWW9xXNLSHNBHABQwQWeGjgQ3eKwuq1GIO4G0A0k0ZVN
Fb8Aztfc3huO7mYlMR+et5T3WMCGBlfKUKZz8pI7am0i6e21zgzq29l/sqcEJb5i
EEUCCxxuxIverCPl5IRxkqODgcnXkoPH7iQFVJHcd4WUFoQhnRFTPcqrHPfbtfgu
u12vBnQodRCSarLzAgMBAAECggGAQyWq4e7FaXlvwP0hezhqnxDZbRz4is/W/zYl
cA7yHBqmALhCckFZF8aUeZvfMdjz38Pm1EftJLbiEVdlx9HvwrxDITFReVvEoFzK
tQtSx72idjFn9LiEKTRVPvbFsHnMHyoF6784qT5eFQrSRMxtEULhuCEDSPsGuOu8
HY47eZz+0G+PuikamTCA5RL61uxBg0MvXUArcZWts+0vLCLyNJTUjqJF5MQE/Mm2
gY5PFlz8zCI0itzWXwfIvNB7N+GALVngXpKsSL8djk8p/anY1zuTVFcuBkcS7Neo
9npA9z6dySIX+I66TzgIUAuhgOAMLpqMKPjwNWG+7pRdWVx0Rg+VLbdEhfImcyrY
TUYUnQRQ74RLx+wOBi8poVMREqZhYA9IHr/KHqZEtesIChTYOEyORB/fv81ReEaq
T39iQ5H/2SEKWjKLpC9vRgZuLcuc9ArB+GO/JsCj9XoSv+esEJkQ3o7/cDsIhaR1
9mMhf+T0fL4X+6W97d9P3sOhsTmZAoHBAO44z5Rj3sCSpC8zP7nZfb2UR4TMBnv1
XLSwLI0GWJAKxKjoxesMh8IJKhiJYnL0Mwp5WLkEQ8OTJJMiFrnlTA3gxpY0IAi/
18TVcC5wiKQi3xAY3k9EjBxfnOKNrw9lN5rN/7nMKVpWZAWPfA/98IbLjmigVEcb
wDOeu49NUbDQYpV/A7qRNbwSZMQOQrUZW9PXdshQNfevbiveQOcr0jPLqcpHcdPL
wxjEmfPc177ruHCI+71WpV0dcQcyBZQgHwKBwQDNnnqR5vmItmzbtjPBllLs6d3r
UpF/ZgecnVDYurwOMX5Vc/H6r7TLryRkCxTXR8avf6XM/+DxR6d0u27ogKAddPh+
Rys5FZM14EGxdYkXAxV16mn8kLfhdl7xhHm/glutnqJGTadUzB1CW4jpSCZPLA+h
anSt9iHAw4e1yF4D7ZbrvrNqt/lWGGpEoy9Y1B+AZmMhQtK3IUs5Rs/baNhOz2uX
4krrWS4q7gPj0Bt7/AnI6ARpi0n1PN+Ws/3XQq0CgcEAjIEZfc5BzZcwG17A0V8E
GNLiM+MaV/ZpzXCzdiIuDhcr0uwn//COCdXZ7ErrtB1wFVdpCwcG6M1anyVV/iLN
7smKl4D6++4a10+EMP/St+yRYC8qv9oQQZPrNnyWqh/q4fVqRS2znkKiD92HMO93
9CkPP4qA6sflXwzaVzUlX4IpAz+89Uc8SEcZA8Hdem8QiCvnNVKJ4iKoeltGMJLa
Eg6ngFUPP/pIgc1DeF/jKApj6IwC3rPCKN96kOHiBHHFAoHADFrzfoTkhaSAkgs2
vPEtdnLvFM7XU1JsLqr9Sqid2DR9JOFcrvWT5ZFWnHRWAkGb3LvM2K6fc6AcndUN
awcfl+WJcP0RydJUEC6zg9hOLoXO6lD1oWmIwxF7zwNo1Wsd2ybnFVZhMaU6NNyP
M4VUV/mLzuU4saNSj+Sv6OprS80g/nVtDoKThurcp9cuZyYH5o1Ac6UySDLF9GEe
6E46gTHRg0Tjv5SSQ54dubitjhus8teOPFFUVlocDVAvdpnZAoHASnIT5Fy/VD++
3wC7UuvJ9zKcMeqaRZS1nJLN8uDBlEYPPrkGZ1urc6hcOivyNrr+dWCPpB7TYZIG
TeoIIs1DGpOInHcmOv14MUAE2BHbAmnAUdptfilh/QAA1OSRtCxvE5YgLbHb5WYJ
rX9fQulis7KNHmcMolN7phw44OJjaBklKQno2wwym7+kvB03gX+vmBnzXEZpARGj
4jtVxTW6n6rdWqlJJ4VJSUCUEaQkWDFJjUc7Dv2GKFHJgwEhz4HQ
-----END RSA PRIVATE KEY-----
