Certificate:
    Data:
        Version: 1 (0x0)
        Serial Number: 3 (0x3)
    Signature Algorithm: sha1WithRSAEncryption
        Issuer: C=us, ST=New York, L=New York, O=Example CA from Apress Media LLC, OU=Foundations of Python Network Programming 3rd Ed, CN=ca/emailAddress=ca@example.com
        Validity
            Not Before: Mar  8 16:58:12 2014 GMT
            Not After : Feb 12 16:58:12 2114 GMT
        Subject: C=us, ST=New York, O=Example from Apress Media LLC, OU=Foundations of Python Network Programming 3rd Ed, CN=www.example.com/emailAddress=root@example.com
        Subject Public Key Info:
            Public Key Algorithm: rsaEncryption
                Public-Key: (3072 bit)
                Modulus:
                    00:de:b3:37:1f:e9:06:69:68:5b:6d:fa:b2:2b:3a:
                    1e:3c:b2:22:60:13:8b:c3:75:be:c2:e2:a2:82:c5:
                    35:a8:33:c5:24:12:a4:24:5e:14:a8:2a:3a:39:f6:
                    6e:24:ba:40:1c:02:0f:c1:bf:f4:8a:10:36:85:72:
                    bc:fc:8f:51:77:be:6d:de:57:a2:60:44:7a:39:e7:
                    e0:f5:34:46:bb:19:68:0f:4a:26:03:92:14:01:01:
                    f2:b2:e0:b2:bb:42:5a:ab:1a:00:40:03:b3:49:fc:
                    ad:17:2a:fe:55:aa:28:a7:51:3e:01:a2:a9:df:a9:
                    31:e8:7c:3c:13:e0:5e:66:a3:c5:b2:dc:bb:46:70:
                    0a:37:02:01:69:a5:e2:be:cb:0b:af:3a:f2:9d:d3:
                    02:ed:0c:9f:c3:46:de:3b:e2:1e:78:f7:f9:aa:b6:
                    14:ee:6d:ab:11:e6:28:c3:42:2f:c3:13:b8:37:40:
                    cc:8e:5c:c9:70:cd:c2:23:b0:21:6f:50:e8:6e:2e:
                    c4:a0:af:6d:5c:53:2b:5e:eb:4e:4d:09:28:15:e0:
                    66:e2:9f:29:4f:bf:e2:bc:59:f1:f9:96:b1:13:49:
                    9c:47:ca:b2:cf:24:2a:59:30:d0:f8:73:e4:04:4e:
                    15:6d:14:2c:65:23:f5:f2:d8:16:ac:7c:4e:3e:52:
                    a6:a7:ff:fc:be:0e:64:e4:e7:f3:ea:16:94:a2:43:
                    46:73:48:39:98:20:0b:ac:45:7d:87:b8:ad:46:a4:
                    13:c2:80:3d:e7:2d:91:f7:a5:29:64:8e:b5:96:93:
                    3a:aa:a2:88:c8:2e:40:36:74:27:6b:e9:41:64:c0:
                    fa:3d:3d:7d:91:d3:2d:8d:ee:09:c4:09:e3:35:a0:
                    f3:f4:30:f7:19:ba:27:6f:56:73:1b:d7:f4:be:a9:
                    44:d5:81:ff:1c:b1:56:fa:ec:e9:8a:8f:ce:8d:af:
                    be:3c:1a:16:84:57:fd:1e:1f:67:20:41:34:0c:2c:
                    1c:69:9f:a8:bd:5b:a3:2d:0d:43
                Exponent: 65537 (0x10001)
    Signature Algorithm: sha1WithRSAEncryption
         a6:61:ce:fd:dd:aa:39:6b:47:1c:91:85:5d:20:60:af:2e:b8:
         a7:61:fd:8e:3c:61:5e:35:26:94:84:36:04:0b:55:89:84:19:
         db:76:d9:a9:51:31:ff:36:9d:76:7b:65:b1:62:66:bc:a1:e9:
         ec:24:9a:c4:e8:c5:93:86:ae:82:e4:5a:2e:fd:f8:9c:4b:6a:
         ee:cb:51:92:85:b9:d6:e0:b6:61:56:2d:db:82:9d:50:da:9e:
         bb:84:1a:49:61:71:60:6b:9e:db:c3:2f:46:85:3e:c7:60:19:
         d8:cc:fc:c2:a3:16:f1:ed:1e:7f:c8:2c:1c:69:36:f4:49:a3:
         b3:0f:29:1b:7b:45:c8:95:15:05:03:f9:6c:42:a8:9a:2e:d6:
         51:06:ee:7f:73:da:01:37:36:4f:e1:82:33:e2:da:cb:4b:df:
         54:0f:47:3b:10:03:92:73:65:53:ce:b4:0c:e3:3c:41:6e:44:
         e1:41:ac:4e:9b:c6:61:88:d5:3b:c2:65:19:89:4f:50:5f:c8:
         bd:f1:f0:88:3b:24:11:16:91:ec:93:b2:68:13:66:04:b6:c7:
         79:dc:28:74:a0:b2:41:06:1e:e6:13:8a:dd:30:0f:34:52:e0:
         db:40:9f:eb:04:ac:6b:45:d5:9c:a0:b6:a6:2d:36:4d:85:ca:
         98:f9:63:67:3d:94:b4:e2:45:16:ad:6e:de:98:33:dd:16:23:
         ec:ef:71:64:65:82:0d:96:4b:10:a2:8f:10:68:e1:2c:db:18:
         2f:11:aa:f7:f3:ca:1b:79:36:30:8a:04:7d:e1:24:4d:50:48:
         11:f5:e1:a4:87:40:f4:a8:75:21:c2:d4:00:00:7c:1d:c1:f8:
         21:c8:23:54:e4:01:75:2e:76:1e:bb:b3:01:36:aa:f4:7f:98:
         56:c5:b4:7c:2e:49:51:1b:48:76:7e:da:e9:05:e5:9f:26:4a:
         09:0d:96:be:90:9e:29:02:0c:86:1b:05:60:ce:4a:24:f3:99:
         7f:f3:3e:8a:ea:97
-----BEGIN CERTIFICATE-----
MIIE+zCCA2MCAQMwDQYJKoZIhvcNAQEFBQAwgcUxCzAJBgNVBAYTAnVzMREwDwYD
VQQIEwhOZXcgWW9yazERMA8GA1UEBxMITmV3IFlvcmsxKTAnBgNVBAoTIEV4YW1w
bGUgQ0EgZnJvbSBBcHJlc3MgTWVkaWEgTExDMTkwNwYDVQQLEzBGb3VuZGF0aW9u
cyBvZiBQeXRob24gTmV0d29yayBQcm9ncmFtbWluZyAzcmQgRWQxCzAJBgNVBAMT
AmNhMR0wGwYJKoZIhvcNAQkBFg5jYUBleGFtcGxlLmNvbTAgFw0xNDAzMDgxNjU4
MTJaGA8yMTE0MDIxMjE2NTgxMlowgb4xCzAJBgNVBAYTAnVzMREwDwYDVQQIEwhO
ZXcgWW9yazEmMCQGA1UEChMdRXhhbXBsZSBmcm9tIEFwcmVzcyBNZWRpYSBMTEMx
OTA3BgNVBAsTMEZvdW5kYXRpb25zIG9mIFB5dGhvbiBOZXR3b3JrIFByb2dyYW1t
aW5nIDNyZCBFZDEYMBYGA1UEAxMPd3d3LmV4YW1wbGUuY29tMR8wHQYJKoZIhvcN
AQkBFhByb290QGV4YW1wbGUuY29tMIIBojANBgkqhkiG9w0BAQEFAAOCAY8AMIIB
igKCAYEA3rM3H+kGaWhbbfqyKzoePLIiYBOLw3W+wuKigsU1qDPFJBKkJF4UqCo6
OfZuJLpAHAIPwb/0ihA2hXK8/I9Rd75t3leiYER6Oefg9TRGuxloD0omA5IUAQHy
suCyu0JaqxoAQAOzSfytFyr+Vaoop1E+AaKp36kx6Hw8E+BeZqPFsty7RnAKNwIB
aaXivssLrzryndMC7Qyfw0beO+IeePf5qrYU7m2rEeYow0IvwxO4N0DMjlzJcM3C
I7Ahb1Dobi7EoK9tXFMrXutOTQkoFeBm4p8pT7/ivFnx+ZaxE0mcR8qyzyQqWTDQ
+HPkBE4VbRQsZSP18tgWrHxOPlKmp//8vg5k5Ofz6haUokNGc0g5mCALrEV9h7it
RqQTwoA95y2R96UpZI61lpM6qqKIyC5ANnQna+lBZMD6PT19kdMtje4JxAnjNaDz
9DD3Gbonb1ZzG9f0vqlE1YH/HLFW+uzpio/Oja++PBoWhFf9Hh9nIEE0DCwcaZ+o
vVujLQ1DAgMBAAEwDQYJKoZIhvcNAQEFBQADggGBAKZhzv3dqjlrRxyRhV0gYK8u
uKdh/Y48YV41JpSENgQLVYmEGdt22alRMf82nXZ7ZbFiZryh6ewkmsToxZOGroLk
Wi79+JxLau7LUZKFudbgtmFWLduCnVDanruEGklhcWBrntvDL0aFPsdgGdjM/MKj
FvHtHn/ILBxpNvRJo7MPKRt7RciVFQUD+WxCqJou1lEG7n9z2gE3Nk/hgjPi2stL
31QPRzsQA5JzZVPOtAzjPEFuROFBrE6bxmGI1TvCZRmJT1BfyL3x8Ig7JBEWkeyT
smgTZgS2x3ncKHSgskEGHuYTit0wDzRS4NtAn+sErGtF1ZygtqYtNk2Fypj5Y2c9
lLTiRRatbt6YM90WI+zvcWRlgg2WSxCijxBo4SzbGC8Rqvfzyht5NjCKBH3hJE1Q
SBH14aSHQPSodSHC1AAAfB3B+CHII1TkAXUudh67swE2qvR/mFbFtHwuSVEbSHZ+
2ukF5Z8mSgkNlr6QnikCDIYbBWDOSiTzmX/zPorqlw==
-----END CERTIFICATE-----
-----BEGIN RSA PRIVATE KEY-----
MIIG5QIBAAKCAYEA3rM3H+kGaWhbbfqyKzoePLIiYBOLw3W+wuKigsU1qDPFJBKk
JF4UqCo6OfZuJLpAHAIPwb/0ihA2hXK8/I9Rd75t3leiYER6Oefg9TRGuxloD0om
A5IUAQHysuCyu0JaqxoAQAOzSfytFyr+Vaoop1E+AaKp36kx6Hw8E+BeZqPFsty7
RnAKNwIBaaXivssLrzryndMC7Qyfw0beO+IeePf5qrYU7m2rEeYow0IvwxO4N0DM
jlzJcM3CI7Ahb1Dobi7EoK9tXFMrXutOTQkoFeBm4p8pT7/ivFnx+ZaxE0mcR8qy
zyQqWTDQ+HPkBE4VbRQsZSP18tgWrHxOPlKmp//8vg5k5Ofz6haUokNGc0g5mCAL
rEV9h7itRqQTwoA95y2R96UpZI61lpM6qqKIyC5ANnQna+lBZMD6PT19kdMtje4J
xAnjNaDz9DD3Gbonb1ZzG9f0vqlE1YH/HLFW+uzpio/Oja++PBoWhFf9Hh9nIEE0
DCwcaZ+ovVujLQ1DAgMBAAECggGBAKOguFsY414lkDAhqDF8tWTRWdKP6fxGklAt
J0zAS+l3iF012SbjfXgF9txJxan0s1Ag76TjPnEG8phgsp07TJeX8rAQYb0r80aC
qlZf/6xPQZciWwX6mfoXjVSDJq/SVD4tj4t5bI1rO16vd0pICTDOz6lx9DDi50mz
pozQKWxu3r7J0kwx3D+ImLMgcJbRJ5erz0HJHfhAc06OzpDfVpZ5VRdqS7zYFX7E
RqUZB3DlF1B5qxLa+COK+x8vtZFNtuqw/qevUDnhZtZbswUiok9swsM2rxO3LCfu
OtgdjKUzKuTl5KR30nZur4d3lU29tb25D4AwLihRbHR80z2WeBIlklZBx0cB8IV8
3ov/IuPr3Yv99uWY60niN80chYCCTNTRj0r4mH53xsv9zgksoaVO5wEm7ctxFN7y
6syop7pfowyY21Ysl0paCoD2mpGfkHPXlTiczB24kYsLtMYF2zP6W+aI7qzUznA7
5eXGXDVhEkQu2hfnuFAWsjPRLWa4kQKBwQD5YiWF9ZwmzFIf9BjlzW+ErSD7FtkF
mauaERGp4h3uAvaTpia1dNMBpdAnflYBgzWMi8ByxLrr9e0w8Zdbw3+5g3Y/nK3M
mZF8DvON7GoTuynZAuiW9hFxbsNdCApJra5yYTznACSO/vmsL02LmDLa2qJHmnNA
wesOXvQMSsLvaLTQTJnOHTwV3PwOV9eU3CY0VALHbANMa6rL+ae+6/EGXl4SXwdB
m0vZAS6FBXMH7ukBtAQ18AW/jPWgEk2UIukCgcEA5JvUx8TkSIN4CX7zLYqsGZYl
b/hJLJgajBLLNs5/rwOQie6JA9DvkJIyS4iBlxEC1HytND/Bdw0CDSlZ/VQobs9a
I+UWr0paE1MosMlL8q2S9KsbP8y++zGXyd506SHaPGUAnIOXn+mQSmE8a6wsOcNC
Z+I11VI9JJXe9WGFP0NqS3z/yj7QrAVKpF712RP8rBVljWslqpc3+SQNzLBYG2PZ
e5P1vLHAgYFXNRB9Gv5zjehuOHuIe+EAIq+WrltLAoHBALeWTzVc6IWPaO3pDuMt
52ju4xa1bTK4PCIBatV7hrkPKWLssBZpWGUgIirQ0JPwed1rjFNxDIJk2yZq1BhT
xZVWeBjASRoT+4wunZHfdv/rixUdFQj9QT4WYm/8WUaAO6osd18/NaqnfjoJ4LZh
Zx7CUTERPMNxfo9ny5W4++SvWlz150xbLT6THmOYuzX1E5L2Pc19cLgzktrygVEF
9LvRgMNZfcgIgT/RpON8bYBrmtEMKwViG3k2ViRvFPl28QKBwFIPkfjHt35EGwGl
nVsarR5eJEAmKvYj/1uKn4Gj7HeBWw/4HRzOkkAeConMjWARzidCPdZEkIjQlYzt
7AygegcUzXGXGWaA1Qac0j1rdKS/I8JJ7XUgZOm8apUfEm5hJXqKcwa7weC4MYBR
mSO5YQK3EY5CyDoz1Bje53LDt9X2uCAy1Yres38cQyfvomZy4z9OSu7RqGqs732y
MHXqUyY52GagvRQn5kdWi1xT9+SJtCcbaP1DcsGtCaRpzTf3MwKBwQCMoe/sxfa8
ln24KRXyzRmQZv7C1hCHFXDwL+9m3J7O3LXX80Es46ovgw3FyW7EXRoOh/Ma2CjU
8ZFW8k3p4RA7uDBMjHF3tZqIGpHpY6UyeRPf8QJ7ZsdXLRsVmHM+95T1Sy6QgmW2
Worz0PhhWVzGT7MgSduY0c8efArdZC5aVo24Gvd3i+di2pRQa0g9rSL7VJrm4BdB
NmdPSZN/rGhvwbWbPVQ5ofhFOMod1qgAp626ladmlublPtFt9sRJESU=
-----END RSA PRIVATE KEY-----
