Certificate:
    Data:
        Version: 1 (0x0)
        Serial Number: 5 (0x5)
        Signature Algorithm: sha256WithRSAEncryption
        Issuer: C=us, ST=New York, L=New York, O=Example CA from Apress Media LLC, OU=Foundations of Python Network Programming 3rd Ed, CN=ca/emailAddress=ca@example.com
        Validity
            Not Before: Aug 15 16:00:15 2019 GMT
            Not After : Jul 22 16:00:15 2119 GMT
        Subject: C=us, ST=New York, O=Example from Apress Media LLC, OU=Foundations of Python Network Programming 3rd Ed, CN=www.example.com/emailAddress=root@example.com
        Subject Public Key Info:
            Public Key Algorithm: rsaEncryption
                RSA Public-Key: (3072 bit)
                Modulus:
                    00:de:b3:37:1f:e9:06:69:68:5b:6d:fa:b2:2b:3a:
                    1e:3c:b2:22:60:13:8b:c3:75:be:c2:e2:a2:82:c5:
                    35:a8:33:c5:24:12:a4:24:5e:14:a8:2a:3a:39:f6:
                    6e:24:ba:40:1c:02:0f:c1:bf:f4:8a:10:36:85:72:
                    bc:fc:8f:51:77:be:6d:de:57:a2:60:44:7a:39:e7:
                    e0:f5:34:46:bb:19:68:0f:4a:26:03:92:14:01:01:
                    f2:b2:e0:b2:bb:42:5a:ab:1a:00:40:03:b3:49:fc:
                    ad:17:2a:fe:55:aa:28:a7:51:3e:01:a2:a9:df:a9:
                    31:e8:7c:3c:13:e0:5e:66:a3:c5:b2:dc:bb:46:70:
                    0a:37:02:01:69:a5:e2:be:cb:0b:af:3a:f2:9d:d3:
                    02:ed:0c:9f:c3:46:de:3b:e2:1e:78:f7:f9:aa:b6:
                    14:ee:6d:ab:11:e6:28:c3:42:2f:c3:13:b8:37:40:
                    cc:8e:5c:c9:70:cd:c2:23:b0:21:6f:50:e8:6e:2e:
                    c4:a0:af:6d:5c:53:2b:5e:eb:4e:4d:09:28:15:e0:
                    66:e2:9f:29:4f:bf:e2:bc:59:f1:f9:96:b1:13:49:
                    9c:47:ca:b2:cf:24:2a:59:30:d0:f8:73:e4:04:4e:
                    15:6d:14:2c:65:23:f5:f2:d8:16:ac:7c:4e:3e:52:
                    a6:a7:ff:fc:be:0e:64:e4:e7:f3:ea:16:94:a2:43:
                    46:73:48:39:98:20:0b:ac:45:7d:87:b8:ad:46:a4:
                    13:c2:80:3d:e7:2d:91:f7:a5:29:64:8e:b5:96:93:
                    3a:aa:a2:88:c8:2e:40:36:74:27:6b:e9:41:64:c0:
                    fa:3d:3d:7d:91:d3:2d:8d:ee:09:c4:09:e3:35:a0:
                    f3:f4:30:f7:19:ba:27:6f:56:73:1b:d7:f4:be:a9:
                    44:d5:81:ff:1c:b1:56:fa:ec:e9:8a:8f:ce:8d:af:
                    be:3c:1a:16:84:57:fd:1e:1f:67:20:41:34:0c:2c:
                    1c:69:9f:a8:bd:5b:a3:2d:0d:43
                Exponent: 65537 (0x10001)
    Signature Algorithm: sha256WithRSAEncryption
         12:02:a0:95:cb:64:af:39:67:cb:c5:51:66:72:c5:1a:10:8e:
         8f:6d:2a:8b:a6:d7:33:87:21:2e:e2:04:54:41:4c:cd:0f:1c:
         fb:53:b5:10:57:e6:46:8a:6f:a3:42:69:aa:39:cf:68:82:0d:
         36:22:b1:57:61:ba:cc:34:06:ec:51:96:3a:4b:aa:ee:2d:e9:
         c0:91:83:ff:68:0c:79:33:37:41:c9:c0:21:d8:ea:38:21:71:
         e9:f5:66:7e:97:e3:bd:39:be:61:3b:88:25:51:9c:8d:82:e9:
         fa:7e:f7:cd:b8:a8:96:44:36:eb:9f:ae:5f:23:4a:65:7e:f5:
         f0:8a:95:69:ca:29:e2:c3:2e:c0:09:96:72:ca:d2:9d:ea:d2:
         0a:0b:88:e9:12:c2:86:d2:07:c7:f2:70:ae:e3:21:76:57:b1:
         ec:fc:44:b8:d8:f8:c4:a2:3b:9e:a3:17:15:b6:ad:64:22:4b:
         85:4a:0e:8e:eb:e9:c1:95:4f:9a:f9:cf:98:22:45:91:83:fa:
         4c:26:f9:38:fa:a3:f1:9a:eb:d8:12:44:a7:20:05:77:e9:b7:
         91:68:ed:92:07:fd:76:9a:9a:db:10:b7:3a:ac:5c:d0:4e:f1:
         ba:21:86:02:6b:be:e0:5e:d1:eb:00:6d:33:4c:a8:3e:89:65:
         22:18:97:60:1f:ec:9e:cf:b0:01:4f:81:3e:63:58:47:31:e8:
         99:8d:05:c0:bc:99:1b:6e:17:85:92:8e:47:3c:c2:a6:c4:2d:
         eb:f3:74:f0:32:d2:ac:92:51:a3:92:f8:1b:65:ea:35:e7:75:
         62:0e:bc:2d:ac:3a:cb:7f:41:51:f9:83:02:1d:eb:f1:61:5a:
         21:20:14:37:28:f9:86:12:4c:f5:6a:56:d7:ed:70:cc:9b:e7:
         2e:93:dd:9a:6c:ef:e4:a3:47:13:30:81:27:58:e7:7e:f5:b0:
         13:33:9c:b3:f0:79:fe:10:10:54:ee:13:ad:c4:2e:c8:0c:32:
         c5:1f:6f:82:e9:fa
-----BEGIN CERTIFICATE-----
MIIE+zCCA2MCAQUwDQYJKoZIhvcNAQELBQAwgcUxCzAJBgNVBAYTAnVzMREwDwYD
VQQIDAhOZXcgWW9yazERMA8GA1UEBwwITmV3IFlvcmsxKTAnBgNVBAoMIEV4YW1w
bGUgQ0EgZnJvbSBBcHJlc3MgTWVkaWEgTExDMTkwNwYDVQQLDDBGb3VuZGF0aW9u
cyBvZiBQeXRob24gTmV0d29yayBQcm9ncmFtbWluZyAzcmQgRWQxCzAJBgNVBAMM
AmNhMR0wGwYJKoZIhvcNAQkBFg5jYUBleGFtcGxlLmNvbTAgFw0xOTA4MTUxNjAw
MTVaGA8yMTE5MDcyMjE2MDAxNVowgb4xCzAJBgNVBAYTAnVzMREwDwYDVQQIDAhO
ZXcgWW9yazEmMCQGA1UECgwdRXhhbXBsZSBmcm9tIEFwcmVzcyBNZWRpYSBMTEMx
OTA3BgNVBAsMMEZvdW5kYXRpb25zIG9mIFB5dGhvbiBOZXR3b3JrIFByb2dyYW1t
aW5nIDNyZCBFZDEYMBYGA1UEAwwPd3d3LmV4YW1wbGUuY29tMR8wHQYJKoZIhvcN
AQkBFhByb290QGV4YW1wbGUuY29tMIIBojANBgkqhkiG9w0BAQEFAAOCAY8AMIIB
igKCAYEA3rM3H+kGaWhbbfqyKzoePLIiYBOLw3W+wuKigsU1qDPFJBKkJF4UqCo6
OfZuJLpAHAIPwb/0ihA2hXK8/I9Rd75t3leiYER6Oefg9TRGuxloD0omA5IUAQHy
suCyu0JaqxoAQAOzSfytFyr+Vaoop1E+AaKp36kx6Hw8E+BeZqPFsty7RnAKNwIB
aaXivssLrzryndMC7Qyfw0beO+IeePf5qrYU7m2rEeYow0IvwxO4N0DMjlzJcM3C
I7Ahb1Dobi7EoK9tXFMrXutOTQkoFeBm4p8pT7/ivFnx+ZaxE0mcR8qyzyQqWTDQ
+HPkBE4VbRQsZSP18tgWrHxOPlKmp//8vg5k5Ofz6haUokNGc0g5mCALrEV9h7it
RqQTwoA95y2R96UpZI61lpM6qqKIyC5ANnQna+lBZMD6PT19kdMtje4JxAnjNaDz
9DD3Gbonb1ZzG9f0vqlE1YH/HLFW+uzpio/Oja++PBoWhFf9Hh9nIEE0DCwcaZ+o
vVujLQ1DAgMBAAEwDQYJKoZIhvcNAQELBQADggGBABICoJXLZK85Z8vFUWZyxRoQ
jo9tKoum1zOHIS7iBFRBTM0PHPtTtRBX5kaKb6NCaao5z2iCDTYisVdhusw0BuxR
ljpLqu4t6cCRg/9oDHkzN0HJwCHY6jghcen1Zn6X4705vmE7iCVRnI2C6fp+9824
qJZENuufrl8jSmV+9fCKlWnKKeLDLsAJlnLK0p3q0goLiOkSwobSB8fycK7jIXZX
sez8RLjY+MSiO56jFxW2rWQiS4VKDo7r6cGVT5r5z5giRZGD+kwm+Tj6o/Ga69gS
RKcgBXfpt5Fo7ZIH/XaamtsQtzqsXNBO8bohhgJrvuBe0esAbTNMqD6JZSIYl2Af
7J7PsAFPgT5jWEcx6JmNBcC8mRtuF4WSjkc8wqbELevzdPAy0qySUaOS+Btl6jXn
dWIOvC2sOst/QVH5gwId6/FhWiEgFDco+YYSTPVqVtftcMyb5y6T3Zps7+SjRxMw
gSdY5371sBMznLPwef4QEFTuE63ELsgMMsUfb4Lp+g==
-----END CERTIFICATE-----
-----BEGIN RSA PRIVATE KEY-----
MIIG5QIBAAKCAYEA3rM3H+kGaWhbbfqyKzoePLIiYBOLw3W+wuKigsU1qDPFJBKk
JF4UqCo6OfZuJLpAHAIPwb/0ihA2hXK8/I9Rd75t3leiYER6Oefg9TRGuxloD0om
A5IUAQHysuCyu0JaqxoAQAOzSfytFyr+Vaoop1E+AaKp36kx6Hw8E+BeZqPFsty7
RnAKNwIBaaXivssLrzryndMC7Qyfw0beO+IeePf5qrYU7m2rEeYow0IvwxO4N0DM
jlzJcM3CI7Ahb1Dobi7EoK9tXFMrXutOTQkoFeBm4p8pT7/ivFnx+ZaxE0mcR8qy
zyQqWTDQ+HPkBE4VbRQsZSP18tgWrHxOPlKmp//8vg5k5Ofz6haUokNGc0g5mCAL
rEV9h7itRqQTwoA95y2R96UpZI61lpM6qqKIyC5ANnQna+lBZMD6PT19kdMtje4J
xAnjNaDz9DD3Gbonb1ZzG9f0vqlE1YH/HLFW+uzpio/Oja++PBoWhFf9Hh9nIEE0
DCwcaZ+ovVujLQ1DAgMBAAECggGBAKOguFsY414lkDAhqDF8tWTRWdKP6fxGklAt
J0zAS+l3iF012SbjfXgF9txJxan0s1Ag76TjPnEG8phgsp07TJeX8rAQYb0r80aC
qlZf/6xPQZciWwX6mfoXjVSDJq/SVD4tj4t5bI1rO16vd0pICTDOz6lx9DDi50mz
pozQKWxu3r7J0kwx3D+ImLMgcJbRJ5erz0HJHfhAc06OzpDfVpZ5VRdqS7zYFX7E
RqUZB3DlF1B5qxLa+COK+x8vtZFNtuqw/qevUDnhZtZbswUiok9swsM2rxO3LCfu
OtgdjKUzKuTl5KR30nZur4d3lU29tb25D4AwLihRbHR80z2WeBIlklZBx0cB8IV8
3ov/IuPr3Yv99uWY60niN80chYCCTNTRj0r4mH53xsv9zgksoaVO5wEm7ctxFN7y
6syop7pfowyY21Ysl0paCoD2mpGfkHPXlTiczB24kYsLtMYF2zP6W+aI7qzUznA7
5eXGXDVhEkQu2hfnuFAWsjPRLWa4kQKBwQD5YiWF9ZwmzFIf9BjlzW+ErSD7FtkF
mauaERGp4h3uAvaTpia1dNMBpdAnflYBgzWMi8ByxLrr9e0w8Zdbw3+5g3Y/nK3M
mZF8DvON7GoTuynZAuiW9hFxbsNdCApJra5yYTznACSO/vmsL02LmDLa2qJHmnNA
wesOXvQMSsLvaLTQTJnOHTwV3PwOV9eU3CY0VALHbANMa6rL+ae+6/EGXl4SXwdB
m0vZAS6FBXMH7ukBtAQ18AW/jPWgEk2UIukCgcEA5JvUx8TkSIN4CX7zLYqsGZYl
b/hJLJgajBLLNs5/rwOQie6JA9DvkJIyS4iBlxEC1HytND/Bdw0CDSlZ/VQobs9a
I+UWr0paE1MosMlL8q2S9KsbP8y++zGXyd506SHaPGUAnIOXn+mQSmE8a6wsOcNC
Z+I11VI9JJXe9WGFP0NqS3z/yj7QrAVKpF712RP8rBVljWslqpc3+SQNzLBYG2PZ
e5P1vLHAgYFXNRB9Gv5zjehuOHuIe+EAIq+WrltLAoHBALeWTzVc6IWPaO3pDuMt
52ju4xa1bTK4PCIBatV7hrkPKWLssBZpWGUgIirQ0JPwed1rjFNxDIJk2yZq1BhT
xZVWeBjASRoT+4wunZHfdv/rixUdFQj9QT4WYm/8WUaAO6osd18/NaqnfjoJ4LZh
Zx7CUTERPMNxfo9ny5W4++SvWlz150xbLT6THmOYuzX1E5L2Pc19cLgzktrygVEF
9LvRgMNZfcgIgT/RpON8bYBrmtEMKwViG3k2ViRvFPl28QKBwFIPkfjHt35EGwGl
nVsarR5eJEAmKvYj/1uKn4Gj7HeBWw/4HRzOkkAeConMjWARzidCPdZEkIjQlYzt
7AygegcUzXGXGWaA1Qac0j1rdKS/I8JJ7XUgZOm8apUfEm5hJXqKcwa7weC4MYBR
mSO5YQK3EY5CyDoz1Bje53LDt9X2uCAy1Yres38cQyfvomZy4z9OSu7RqGqs732y
MHXqUyY52GagvRQn5kdWi1xT9+SJtCcbaP1DcsGtCaRpzTf3MwKBwQCMoe/sxfa8
ln24KRXyzRmQZv7C1hCHFXDwL+9m3J7O3LXX80Es46ovgw3FyW7EXRoOh/Ma2CjU
8ZFW8k3p4RA7uDBMjHF3tZqIGpHpY6UyeRPf8QJ7ZsdXLRsVmHM+95T1Sy6QgmW2
Worz0PhhWVzGT7MgSduY0c8efArdZC5aVo24Gvd3i+di2pRQa0g9rSL7VJrm4BdB
NmdPSZN/rGhvwbWbPVQ5ofhFOMod1qgAp626ladmlublPtFt9sRJESU=
-----END RSA PRIVATE KEY-----
