Certificate:
    Data:
        Version: 1 (0x0)
        Serial Number: 5 (0x5)
    Signature Algorithm: sha256WithRSAEncryption
        Issuer: C=us, ST=New York, L=New York, O=Example CA from Apress Media LLC, OU=Foundations of Python Network Programming 3rd Ed, CN=ca/emailAddress=ca@example.com
        Validity
            Not Before: Jun 25 21:17:25 2014 GMT
            Not After : Jun  1 21:17:25 2114 GMT
        Subject: C=us, ST=New York, O=Example from Apress Media LLC, OU=Foundations of Python Network Programming 3rd Ed, CN=localhost/emailAddress=localhost@example.com
        Subject Public Key Info:
            Public Key Algorithm: rsaEncryption
                Public-Key: (3072 bit)
                Modulus:
                    00:bf:56:f7:58:c9:98:8d:4e:29:f2:2f:6c:46:3c:
                    26:54:41:52:5b:74:bf:95:3c:89:f7:e3:1c:82:31:
                    05:be:7d:ea:05:41:b8:02:cd:7d:e4:5e:92:32:12:
                    1b:99:ff:76:6e:09:ab:12:b8:30:23:21:25:3c:44:
                    99:e8:dd:e6:bd:83:e9:38:56:ac:39:a0:a1:4f:8b:
                    d3:ce:f5:1f:86:02:7e:de:48:71:11:bc:9f:8c:27:
                    a7:41:a9:57:89:4b:4e:ac:43:82:8d:4f:00:2c:11:
                    4f:ec:af:d0:fa:90:91:1f:16:8d:0f:ef:be:09:c1:
                    0f:fe:9a:43:88:d6:14:d0:27:46:4e:c4:3d:6a:d5:
                    2a:60:f0:b7:db:16:a6:84:78:5a:33:19:43:55:f5:
                    7a:56:52:56:ae:e6:1c:4f:3b:2f:d8:b8:29:9f:a8:
                    f6:4b:55:45:6e:ba:1f:94:d7:30:a9:25:72:3a:11:
                    ed:a5:57:c7:f1:76:f9:ce:86:87:55:70:15:aa:e6:
                    7a:f0:ff:7c:a9:45:93:28:1a:ee:6e:b0:a8:87:5e:
                    43:2d:c8:ef:27:36:c3:24:15:93:ba:46:11:0a:1c:
                    92:82:95:c3:f5:9d:a2:db:76:4b:86:d4:b5:67:f8:
                    99:c6:28:71:55:65:bd:c5:73:4b:48:73:41:1c:00:
                    50:c1:05:9e:1a:38:10:dd:e2:b0:ba:ad:46:20:ee:
                    06:d0:0d:24:d1:95:4d:15:bf:00:ce:d7:dc:de:1b:
                    8e:ee:66:25:31:1f:9e:b7:94:f7:58:c0:86:06:57:
                    ca:50:a6:73:f2:92:3b:6a:6d:22:e9:ed:b5:ce:0c:
                    ea:db:d9:7f:b2:a7:04:25:be:62:10:45:02:0b:1c:
                    6e:c4:8b:de:ac:23:e5:e4:84:71:92:a3:83:81:c9:
                    d7:92:83:c7:ee:24:05:54:91:dc:77:85:94:16:84:
                    21:9d:11:53:3d:ca:ab:1c:f7:db:b5:f8:2e:bb:5d:
                    af:06:74:28:75:10:92:6a:b2:f3
                Exponent: 65537 (0x10001)
    Signature Algorithm: sha256WithRSAEncryption
         b0:2e:68:0c:9f:09:86:44:52:71:79:e6:00:3c:12:b9:6b:b8:
         6a:75:9a:ac:a2:47:c2:44:a2:bb:74:bf:74:3a:10:a5:a8:fb:
         ed:59:b9:98:43:f5:11:06:23:d5:f2:bd:f3:8c:97:91:30:73:
         4a:8f:f1:21:a7:a6:03:38:35:cf:08:10:9e:27:7a:4d:75:a6:
         9e:f3:09:14:8d:1a:0b:40:b8:14:e7:d3:48:0f:b6:17:0a:f5:
         c1:12:c5:36:25:1f:39:f0:19:8f:75:94:ef:77:72:65:94:ba:
         f2:16:e9:f9:7c:37:a8:e5:11:57:5e:ad:2d:9f:2c:db:6b:05:
         92:b7:64:db:d5:e5:27:eb:c4:23:ef:4a:5d:75:76:1e:8f:bb:
         49:6c:53:b6:1f:63:6f:82:e6:59:f1:74:ad:6f:ab:0b:3a:fa:
         18:13:72:f3:eb:b2:3f:64:0e:6c:c4:5a:66:6a:ce:05:c0:8b:
         78:9e:6c:41:0d:5a:db:fe:80:b9:4c:01:cf:a3:b5:ad:17:5f:
         3e:05:b3:38:a8:20:7f:10:2d:66:a7:5a:18:20:1c:d2:66:06:
         ef:28:a8:02:11:12:07:25:37:3f:1e:2d:f1:98:d7:c2:54:1f:
         92:3d:6e:de:3c:03:d4:7f:00:94:cc:7c:20:12:76:cf:f3:e6:
         5b:16:4b:bf:c6:08:9e:c6:20:27:ca:1b:8e:ad:4a:65:d3:f5:
         d6:1a:6c:58:d4:61:4d:bd:b8:c1:72:b2:47:e4:2b:0d:d5:58:
         ce:4d:64:6a:ea:73:09:60:d0:14:3b:15:ea:f7:1e:90:e8:77:
         37:9a:57:e6:c9:70:59:71:c2:56:5b:ac:9b:d8:93:19:69:cf:
         ca:59:75:95:87:27:d7:41:04:b7:d9:77:e6:64:87:0d:1f:95:
         c7:2d:7b:a4:92:51:08:53:ea:9d:b9:60:e2:d6:8d:ba:29:47:
         53:80:4b:31:85:68:41:f7:80:1d:f0:8e:93:cc:2f:72:f1:73:
         56:b0:63:05:df:a2
-----BEGIN CERTIFICATE-----
MIIE+jCCA2ICAQUwDQYJKoZIhvcNAQELBQAwgcUxCzAJBgNVBAYTAnVzMREwDwYD
VQQIEwhOZXcgWW9yazERMA8GA1UEBxMITmV3IFlvcmsxKTAnBgNVBAoTIEV4YW1w
bGUgQ0EgZnJvbSBBcHJlc3MgTWVkaWEgTExDMTkwNwYDVQQLEzBGb3VuZGF0aW9u
cyBvZiBQeXRob24gTmV0d29yayBQcm9ncmFtbWluZyAzcmQgRWQxCzAJBgNVBAMT
AmNhMR0wGwYJKoZIhvcNAQkBFg5jYUBleGFtcGxlLmNvbTAgFw0xNDA2MjUyMTE3
MjVaGA8yMTE0MDYwMTIxMTcyNVowgb0xCzAJBgNVBAYTAnVzMREwDwYDVQQIEwhO
ZXcgWW9yazEmMCQGA1UEChMdRXhhbXBsZSBmcm9tIEFwcmVzcyBNZWRpYSBMTEMx
OTA3BgNVBAsTMEZvdW5kYXRpb25zIG9mIFB5dGhvbiBOZXR3b3JrIFByb2dyYW1t
aW5nIDNyZCBFZDESMBAGA1UEAxMJbG9jYWxob3N0MSQwIgYJKoZIhvcNAQkBFhVs
b2NhbGhvc3RAZXhhbXBsZS5jb20wggGiMA0GCSqGSIb3DQEBAQUAA4IBjwAwggGK
AoIBgQC/VvdYyZiNTinyL2xGPCZUQVJbdL+VPIn34xyCMQW+feoFQbgCzX3kXpIy
EhuZ/3ZuCasSuDAjISU8RJno3ea9g+k4Vqw5oKFPi9PO9R+GAn7eSHERvJ+MJ6dB
qVeJS06sQ4KNTwAsEU/sr9D6kJEfFo0P774JwQ/+mkOI1hTQJ0ZOxD1q1Spg8Lfb
FqaEeFozGUNV9XpWUlau5hxPOy/YuCmfqPZLVUVuuh+U1zCpJXI6Ee2lV8fxdvnO
hodVcBWq5nrw/3ypRZMoGu5usKiHXkMtyO8nNsMkFZO6RhEKHJKClcP1naLbdkuG
1LVn+JnGKHFVZb3Fc0tIc0EcAFDBBZ4aOBDd4rC6rUYg7gbQDSTRlU0VvwDO19ze
G47uZiUxH563lPdYwIYGV8pQpnPykjtqbSLp7bXODOrb2X+ypwQlvmIQRQILHG7E
i96sI+XkhHGSo4OBydeSg8fuJAVUkdx3hZQWhCGdEVM9yqsc99u1+C67Xa8GdCh1
EJJqsvMCAwEAATANBgkqhkiG9w0BAQsFAAOCAYEAsC5oDJ8JhkRScXnmADwSuWu4
anWarKJHwkSiu3S/dDoQpaj77Vm5mEP1EQYj1fK984yXkTBzSo/xIaemAzg1zwgQ
nid6TXWmnvMJFI0aC0C4FOfTSA+2Fwr1wRLFNiUfOfAZj3WU73dyZZS68hbp+Xw3
qOURV16tLZ8s22sFkrdk29XlJ+vEI+9KXXV2Ho+7SWxTth9jb4LmWfF0rW+rCzr6
GBNy8+uyP2QObMRaZmrOBcCLeJ5sQQ1a2/6AuUwBz6O1rRdfPgWzOKggfxAtZqda
GCAc0mYG7yioAhESByU3Px4t8ZjXwlQfkj1u3jwD1H8AlMx8IBJ2z/PmWxZLv8YI
nsYgJ8objq1KZdP11hpsWNRhTb24wXKyR+QrDdVYzk1kaupzCWDQFDsV6vcekOh3
N5pX5slwWXHCVlusm9iTGWnPyll1lYcn10EEt9l35mSHDR+Vxy17pJJRCFPqnblg
4taNuilHU4BLMYVoQfeAHfCOk8wvcvFzVrBjBd+i
-----END CERTIFICATE-----
-----BEGIN RSA PRIVATE KEY-----
MIIG4wIBAAKCAYEAv1b3WMmYjU4p8i9sRjwmVEFSW3S/lTyJ9+McgjEFvn3qBUG4
As195F6SMhIbmf92bgmrErgwIyElPESZ6N3mvYPpOFasOaChT4vTzvUfhgJ+3khx
EbyfjCenQalXiUtOrEOCjU8ALBFP7K/Q+pCRHxaND+++CcEP/ppDiNYU0CdGTsQ9
atUqYPC32xamhHhaMxlDVfV6VlJWruYcTzsv2Lgpn6j2S1VFbroflNcwqSVyOhHt
pVfH8Xb5zoaHVXAVquZ68P98qUWTKBrubrCoh15DLcjvJzbDJBWTukYRChySgpXD
9Z2i23ZLhtS1Z/iZxihxVWW9xXNLSHNBHABQwQWeGjgQ3eKwuq1GIO4G0A0k0ZVN
Fb8Aztfc3huO7mYlMR+et5T3WMCGBlfKUKZz8pI7am0i6e21zgzq29l/sqcEJb5i
EEUCCxxuxIverCPl5IRxkqODgcnXkoPH7iQFVJHcd4WUFoQhnRFTPcqrHPfbtfgu
u12vBnQodRCSarLzAgMBAAECggGAQyWq4e7FaXlvwP0hezhqnxDZbRz4is/W/zYl
cA7yHBqmALhCckFZF8aUeZvfMdjz38Pm1EftJLbiEVdlx9HvwrxDITFReVvEoFzK
tQtSx72idjFn9LiEKTRVPvbFsHnMHyoF6784qT5eFQrSRMxtEULhuCEDSPsGuOu8
HY47eZz+0G+PuikamTCA5RL61uxBg0MvXUArcZWts+0vLCLyNJTUjqJF5MQE/Mm2
gY5PFlz8zCI0itzWXwfIvNB7N+GALVngXpKsSL8djk8p/anY1zuTVFcuBkcS7Neo
9npA9z6dySIX+I66TzgIUAuhgOAMLpqMKPjwNWG+7pRdWVx0Rg+VLbdEhfImcyrY
TUYUnQRQ74RLx+wOBi8poVMREqZhYA9IHr/KHqZEtesIChTYOEyORB/fv81ReEaq
T39iQ5H/2SEKWjKLpC9vRgZuLcuc9ArB+GO/JsCj9XoSv+esEJkQ3o7/cDsIhaR1
9mMhf+T0fL4X+6W97d9P3sOhsTmZAoHBAO44z5Rj3sCSpC8zP7nZfb2UR4TMBnv1
XLSwLI0GWJAKxKjoxesMh8IJKhiJYnL0Mwp5WLkEQ8OTJJMiFrnlTA3gxpY0IAi/
18TVcC5wiKQi3xAY3k9EjBxfnOKNrw9lN5rN/7nMKVpWZAWPfA/98IbLjmigVEcb
wDOeu49NUbDQYpV/A7qRNbwSZMQOQrUZW9PXdshQNfevbiveQOcr0jPLqcpHcdPL
wxjEmfPc177ruHCI+71WpV0dcQcyBZQgHwKBwQDNnnqR5vmItmzbtjPBllLs6d3r
UpF/ZgecnVDYurwOMX5Vc/H6r7TLryRkCxTXR8avf6XM/+DxR6d0u27ogKAddPh+
Rys5FZM14EGxdYkXAxV16mn8kLfhdl7xhHm/glutnqJGTadUzB1CW4jpSCZPLA+h
anSt9iHAw4e1yF4D7ZbrvrNqt/lWGGpEoy9Y1B+AZmMhQtK3IUs5Rs/baNhOz2uX
4krrWS4q7gPj0Bt7/AnI6ARpi0n1PN+Ws/3XQq0CgcEAjIEZfc5BzZcwG17A0V8E
GNLiM+MaV/ZpzXCzdiIuDhcr0uwn//COCdXZ7ErrtB1wFVdpCwcG6M1anyVV/iLN
7smKl4D6++4a10+EMP/St+yRYC8qv9oQQZPrNnyWqh/q4fVqRS2znkKiD92HMO93
9CkPP4qA6sflXwzaVzUlX4IpAz+89Uc8SEcZA8Hdem8QiCvnNVKJ4iKoeltGMJLa
Eg6ngFUPP/pIgc1DeF/jKApj6IwC3rPCKN96kOHiBHHFAoHADFrzfoTkhaSAkgs2
vPEtdnLvFM7XU1JsLqr9Sqid2DR9JOFcrvWT5ZFWnHRWAkGb3LvM2K6fc6AcndUN
awcfl+WJcP0RydJUEC6zg9hOLoXO6lD1oWmIwxF7zwNo1Wsd2ybnFVZhMaU6NNyP
M4VUV/mLzuU4saNSj+Sv6OprS80g/nVtDoKThurcp9cuZyYH5o1Ac6UySDLF9GEe
6E46gTHRg0Tjv5SSQ54dubitjhus8teOPFFUVlocDVAvdpnZAoHASnIT5Fy/VD++
3wC7UuvJ9zKcMeqaRZS1nJLN8uDBlEYPPrkGZ1urc6hcOivyNrr+dWCPpB7TYZIG
TeoIIs1DGpOInHcmOv14MUAE2BHbAmnAUdptfilh/QAA1OSRtCxvE5YgLbHb5WYJ
rX9fQulis7KNHmcMolN7phw44OJjaBklKQno2wwym7+kvB03gX+vmBnzXEZpARGj
4jtVxTW6n6rdWqlJJ4VJSUCUEaQkWDFJjUc7Dv2GKFHJgwEhz4HQ
-----END RSA PRIVATE KEY-----
